(dp0
S'Bmag'
p1
(lp2
F5.74
aF6.415
aF6.24
aF7.57
aFnan
aF6.44
aF7.4
aF6.02
aF5.66
aF5.787
aF6.16
aF6.82
aF5.44
aF6.82
aF5.68
aF6.373
aF5.011
aF6.667
aF5.32
aF10.66
aF10.99
aF10.72
aF10.35
aF11.52
aF7.83
aF10.77
aF12.78
aF11.49
aF7.335
aF13.2
aF14.4
aF11.322
aF11.79
aF10.973
aF10.176
aF11.868
aF13.302
aF13.568
aF11.76
aF11.139
aF6.63
aF6.94
aF11.477
aF11.15
aF11.33
aF7.468
aF9.19
aF7.95
aF9.12
aF8.2
aF8.9
aF9.71
aF8.93
aF5.55
aF8.825
aF10.31
aF8.897
aF6.819
aF8.0
aF8.319
aF6.05
aF8.17
aF6.957
aF8.72
aF7.501
aF8.71
aF9.49
aF9.42
aF8.76
aF5.904
aF8.29
aF10.433
aF9.8
aF7.31
aF7.85
aF8.469
aF8.11
aF8.89
aF7.98
aF7.77
aF8.75
aF7.25
aF5.614
aF4.98
aF8.12
aF6.827
aF10.13
aF8.93
aF8.529
aF8.16
aF9.662
aF8.441
aF3.16
aF9.57
aF8.82
aF8.828
aF9.04
aF9.1
aF9.0
aF6.91
aF7.61
aF7.168
aF6.28
aF8.81
aF6.527
aF9.59
aF9.232
aF8.237
aF7.168
aF7.87
aF6.22
aF8.47
aF5.81
aF8.492
aF7.94
aF5.36
aF9.93
aF8.73
aF7.61
aF7.14
aF9.07
aF5.973
aF8.26
aF7.85
aF8.56
aF9.29
aF7.861
aF7.597
aF9.91
aF9.251
aF7.9
aF7.411
aF7.5
aF8.91
aF7.93
aF7.79
aF8.879
aF7.29
aF9.43
aF8.637
aF8.515
aF7.96
aF5.85
aF7.49
aF7.92
aF10.11
aF8.762
aF4.31
aF6.45
aF8.723
aF10.88
aF7.79
aF10.2
aF6.89
aF7.62
aF8.66
aF10.515
aF6.386
aF8.86
aF9.0
aF8.93
aF9.41
aF7.092
aF8.78
aF8.9
aF5.82
aF8.266
aF7.37
aF8.66
aF6.757
aF7.63
aF8.714
aF8.566
aF9.42
aF8.44
aF8.51
aF7.238
aF7.78
aF8.488
aF8.74
aF8.95
aF5.769
aF6.71
aF6.44
aF8.54
aF9.27
aF8.724
aF6.63
aF7.29
aF7.53
aF8.16
aF6.64
aF6.92
aF7.31
aF5.63
aF9.14
aF7.379
aF8.79
aF6.933
aF9.65
aF8.696
aF9.39
aF9.09
aF9.38
aF9.263
aF8.03
aF9.48
aF4.97
aF8.02
aF11.07
aF7.34
aF6.885
aF8.31
aF8.48
aF7.41
aF9.12
aF7.26
aF9.92
aF6.66
aF6.697
aF8.92
aF8.715
aF6.9
aF8.36
aF9.641
aF9.9
aF8.68
aF4.61
aF8.355
aF7.708
aF8.31
aF7.76
aF8.34
aF8.87
aF9.628
aF7.68
aF9.26
aF9.486
aF7.85
aF9.88
aF9.86
aF8.18
aF8.293
aF10.33
aF5.517
aF8.914
aF10.42
aF8.52
aF8.44
aF4.549
aF9.43
aF9.73
aF9.18
aF6.4
aF8.872
aF7.712
aF8.071
aF7.53
aF10.23
aF8.905
aF8.64
aF5.547
aF7.97
aF6.72
aF8.35
aF9.52
aF7.26
aF6.684
aF9.14
aF6.59
aF6.25
aF8.841
aF8.097
aF7.29
aF9.49
aF13.85
aF8.61
aF9.444
aF8.46
aF7.193
aF8.788
aF9.79
aF8.59
aF8.36
aF6.99
aF8.62
aF8.82
aF8.96
aF8.7
aF8.36
aF6.43
aF8.78
aF8.83
aF7.82
aF7.41
aF8.947
aF6.837
aF9.03
aF6.99
aF9.11
aF6.585
aF4.94
aF2.15
aF10.42
aF8.85
aF8.32
aF8.65
aF8.97
aF9.087
aF8.84
aF6.74
aF9.3
aF7.89
aF4.192
aF8.89
aF8.08
aF8.84
aF9.66
aF9.69
aF9.21
aF8.194
aF8.08
aF6.94
aF8.67
aF8.88
aF9.47
aF8.005
aF8.726
aF8.37
aF6.396
aF8.493
aF7.17
aF9.03
aF8.25
aF9.4
aF8.83
aF7.684
aF9.34
aF8.563
aF7.92
aF6.78
aF8.54
aF8.88
aF7.59
aF6.232
aF7.603
aF8.01
aF9.27
aF8.08
aF9.03
aF8.897
aF8.788
aF9.09
aF8.924
aF8.82
aF7.11
aF8.992
aF4.63
aF8.646
aF9.96
aF8.554
aF8.646
aF10.18
aF11.651
aF10.426
aF9.26
aF5.685
aF11.29
aF13.36
aF10.09
aF11.798
aF4.493
aF12.88
aF3.2
aF7.59
aF5.97
aF4.25
aF11.31
aF8.01
aF11.1
aF13.02
asS'dist'
p3
(lp4
F88.88888888888889
aF122.1001221001221
aF79.1765637371338
aF17.571604287471448
aFnan
aF75.30120481927712
aF77.45933384972889
aF96.52509652509653
aF14.06271972999578
aF78.49293563579278
aF15.607928827844546
aF12.34110823151919
aF8.555051758063136
aF55.80357142857142
aF17.985611510791365
aF81.43322475570034
aF19.751135690302192
aF92.50693802035153
aF45.93477262287552
aF48.355899419729205
aFnan
aFnan
aFnan
aFnan
aF159.4896331738437
aF35.701535166012135
aFnan
aF9.273856997125105
aF17.497812773403325
aF15.313935681470138
aFnan
aF8.882572392965002
aFnan
aF4.540501271340355
aF4.953683063357606
aF9.095870474804439
aF14.9947518368571
aF12.288031457360532
aFnan
aF10.344470880314471
aF8.911067545891997
aF10.782833728703904
aF10.414496979795876
aFnan
aFnan
aF122.24938875305624
aF49.6031746031746
aF39.01677721420211
aF29.205607476635514
aF39.69829297340214
aF29.638411381149968
aF243.90243902439028
aF157.9778830963665
aF9.220839096357768
aF126.26262626262627
aF53.13496280552604
aF21.06593638087213
aF97.08737864077669
aF37.70739064856712
aF84.88964346349746
aF17.433751743375176
aF35.18648838845883
aF32.57328990228013
aF51.20327700972862
aF38.080731150038076
aF139.2757660167131
aF62.61740763932373
aF66.05019815059445
aF56.274620146314014
aF90.00900090009002
aF29.342723004694836
aF15.865460891638902
aF28.89338341519792
aF36.114120621162876
aF38.654812524159254
aF20.50020500205002
aF51.70630816959669
aF123.15270935960592
aF33.046926635822864
aF37.96507213363705
aF88.57395925597875
aF32.8515111695138
aF67.0690811535882
aF15.617679212868968
aF45.105999097880016
aF134.77088948787062
aF27.95638803466592
aF54.200542005420054
aF38.109756097560975
aF34.95281370150297
aF72.62164124909224
aF16.5016501650165
aF20.177562550443906
aF65.53079947575361
aF31.70577045022194
aF110.01100110011001
aF561.7977528089888
aF67.88866259334691
aF96.06147934678194
aF24.201355275895448
aF26.49708532061473
aF26.205450733752624
aF14.812620352540364
aF98.23182711198429
aF82.78145695364239
aF39.23107100823853
aF28.645087367516474
aF44.228217602830604
aF118.06375442739078
aF32.29974160206718
aF25.713551041398816
aF34.32887058015791
aF30.497102775236353
aF109.52902519167579
aF34.23485107839781
aF67.88866259334691
aF65.65988181221273
aF55.03577325261419
aF125.31328320802004
aF23.24500232450023
aF42.955326460481096
aF12.77791975466394
aF51.59958720330238
aF59.03187721369539
aF62.034739454094286
aF159.2356687898089
aF29.56830277942046
aF28.22466836014677
aF83.33333333333333
aF185.5287569573284
aF49.529470034670624
aF17.83803068141277
aF18.58736059479554
aF64.76683937823834
aF64.22607578676943
aF44.11116012351125
aF36.603221083455345
aF54.794520547945204
aF24.473813020068526
aF31.877590054191902
aF103.62694300518135
aF58.68544600938967
aF15.511090429657205
aF38.955979742890534
aF57.87037037037037
aF29.429075927015894
aF68.82312456985548
aF46.21072088724584
aF25.77984016499098
aF52.43838489774515
aF41.067761806981515
aF22.119000221190003
aF42.319085907744395
aF50.22601707684581
aF37.4251497005988
aF42.73504273504274
aF310.55900621118013
aF36.603221083455345
aF62.73525721455458
aFnan
aFnan
aF50.27652086475616
aF139.4700139470014
aF67.29475100942126
aF127.06480304955527
aF14.872099940511601
aF59.03187721369539
aF52.32862375719519
aF65.53079947575361
aF27.548209366391188
aF131.4060446780552
aF109.52902519167579
aF110.61946902654869
aF26.75943270002676
aF58.07200929152149
aF55.096418732782375
aF50.27652086475616
aF44.03346543372963
aF48.262548262548265
aF135.31799729364005
aF57.012542759407076
aF56.274620146314014
aF17.727353306151393
aF15.85791309863622
aF57.273768613974795
aF183.15018315018315
aF19.31620629708325
aF8.911067545891997
aF65.61679790026247
aF38.52080123266564
aF49.97501249375312
aF44.26737494466578
aF33.523298692591354
aF32.33107015842224
aF22.578460149017836
aF43.802014892685065
aF72.20216606498195
aF45.33091568449683
aF26.680896478121667
aF102.56410256410257
aF47.37091425864519
aF26.90341673392521
aF107.75862068965517
aF193.7984496124031
aF35.373187124159884
aF35.52397868561279
aF54.43658138268916
aF6.043391551338611
aF45.850527281063734
aF46.21072088724584
aF21.561017680034496
aF54.94505494505495
aF54.94505494505495
aF131.06159895150722
aF40.633888663145065
aF21.51925973746503
aF38.02281368821293
aF43.59197907585004
aF32.615786040443574
aF26.74511901577962
aF35.574528637495554
aF32.38341968911917
aF19.857029388403497
aF54.85463521667581
aF28.55511136493432
aFnan
aF72.30657989877079
aF3.216054544285071
aF44.563279857397504
aF50.890585241730285
aF55.2791597567717
aF49.06771344455348
aF41.77109440267335
aF98.4251968503937
aF32.77613897082924
aF33.886818027787186
aF98.71668311944718
aF118.48341232227489
aF50.42864346949067
aFnan
aF5263.157894736842
aF46.59832246039142
aF54.975261132490374
aF49.925112331502746
aF18.23819077147547
aF45.49590536851683
aF43.87889425186486
aF42.33700254022015
aF54.67468562055768
aF44.964028776978424
aF226.75736961451247
aF56.657223796033996
aF52.826201796090864
aF26.42007926023778
aF118.06375442739078
aF50.30181086519115
aF38.565368299267256
aF120.62726176115804
aF49.6031746031746
aF125.94458438287153
aF94.16195856873824
aF20.885547201336674
aF46.468401486988846
aF11.059500110595001
aF33.67003367003367
aF43.975373790677224
aF38.314176245210724
aF39.27729772191673
aF90.74410163339384
aF15.176809834572772
aF18.315018315018314
aF25.900025900025902
aF12.99545159194282
aF33.11258278145696
aFnan
aFnan
aF44.05286343612335
aF77.22007722007723
aF32.372936225315634
aF22.055580061755624
aF136.986301369863
aF56.306306306306304
aF80.38585209003216
aF50.42864346949067
aF21.88183807439825
aF48.87585532746823
aF32.69042170644001
aF34.35245620061834
aF34.81894150417828
aF39.5882818685669
aF123.30456226880395
aF85.39709649871904
aF44.228217602830604
aF46.125461254612546
aF29.91325157044571
aF34.83106931382793
aF28.960324355632782
aF114.41647597254004
aF56.369785794813986
aF251.25628140703517
aF96.89922480620154
aF25.29724260055654
aF10.358400662937642
aF34.54231433506045
aF33.25573661456601
aF41.373603640877114
aF35.574528637495554
aF54.91488193300384
aF54.85463521667581
aF54.525627044711015
aF12.49375312343828
aFnan
aF28.066236317709794
aF54.91488193300384
aF35.29827038475115
aF49.82561036372695
aF37.764350453172206
aF54.200542005420054
aF100.70493454179255
aF81.03727714748784
aF64.43298969072166
aF38.92565200467108
aF29.146021568055957
aF75.75757575757576
aF60.27727546714888
aF40.74979625101874
aF16.809547823163555
aF46.10419548178884
aF33.11258278145696
aF85.83690987124463
aF125.47051442910916
aF27.472527472527474
aF41.16920543433512
aF52.54860746190226
aF32.372936225315634
aF11.15822361080116
aF44.563279857397504
aF95.32888465204957
aF45.04504504504504
aF68.7757909215956
aF36.062026685899745
aF18.20498816675769
aF81.43322475570034
aF32.36245954692557
aF39.43217665615142
aF22.35136343316942
aF35.46099290780142
aF27.85515320334262
aF42.19409282700422
aF52.35602094240837
aF139.0820584144645
aF57.3394495412844
aF157.9778830963665
aF483.09178743961354
aF86.95652173913044
aF25.654181631605955
aF134.2281879194631
aF13.491635186184565
aF41.52823920265781
aF49.925112331502746
aF17.95654516071108
aF128.8659793814433
aF111.98208286674132
aF23.014959723820482
aF5882.35294117647
aF53.44735435595938
aF98.4251968503937
aF41.18616144975288
aF11.10370863868532
aF25.920165889061693
aF23.573785950023574
aF31.02699348433137
aF14.39677512237259
aF38.52080123266564
aF40.783034257748774
aF17.167381974248926
aF14.10238330277817
aFnan
aFnan
aFnan
aFnan
asS'BC'
p5
(lp6
F-0.382
aF-0.9029000000000003
aF-0.4030000000000005
aF-0.2850000000000003
aFnan
aF-0.3022000000000001
aF-0.3410000000000006
aF-0.5970999999999993
aF-0.07300000000000006
aF-0.5983999999999997
aF-0.12400000000000018
aF-0.2590000000000001
aF-0.12400000000000018
aF-0.32200000000000045
aF-0.132
aF-0.39100000000000035
aF-0.4490999999999999
aF-0.39310000000000017
aF-0.5050000000000002
aF-0.382
aF-0.679
aF-0.8360999999999994
aF-0.6274000000000004
aF-0.41399999999999926
aF-0.35199999999999976
aF-0.5399999999999987
aF-0.4369999999999988
aF-1.2724999999999989
aF-0.16589999999999977
aF-0.6399999999999985
aFnan
aF-1.1751999999999958
aF-1.3929999999999934
aF-1.375800000000003
aF-1.1611999999999987
aF-1.1556000000000017
aF-1.1247999999999991
aF-1.311999999999996
aF-0.5520000000000006
aF-1.1064000000000003
aF-0.292
aF-0.17600000000000032
aF-0.9910000000000012
aF-0.1460000000000003
aF-0.33199999999999935
aF-0.4140000000000002
aF-0.17599999999999963
aF-0.07899999999999993
aF-0.2949999999999983
aF-0.1609999999999993
aF-0.23299999999999993
aF-0.382
aF-0.426
aF-0.1003999999999998
aF-0.35559999999999936
aF-0.3039999999999999
aF-0.3574
aF-0.4052000000000003
aF-0.08499999999999981
aF-0.15230000000000055
aF-0.025000000000000112
aF-0.2160000000000003
aF-0.101
aF-0.12400000000000089
aF-0.01120000000000009
aF-0.3720000000000011
aF-0.1460000000000003
aF-0.09800000000000007
aF-0.11099999999999978
aF-0.6750999999999999
aF-0.11099999999999914
aF-0.875799999999999
aF-0.4819999999999997
aF-0.07299999999999952
aF-0.03499999999999989
aF-0.3030999999999996
aF-0.0609999999999998
aF-0.3820000000000009
aF-0.1460000000000003
aF-0.0609999999999998
aF-0.11699999999999974
aF-0.2250000000000001
aF-0.3030999999999996
aF-0.00800000000000009
aF-0.0609999999999998
aF-0.8326999999999998
aF-0.49400000000000144
aF-0.06699999999999967
aF-0.11030000000000016
aF-0.13899999999999987
aF-0.2635
aF-0.377000000000001
aF-0.5688000000000002
aF-0.18400000000000089
aF-0.18400000000000089
aF-0.4117999999999995
aF-1.095999999999999
aF-0.09100000000000023
aF-0.0609999999999998
aF-0.076
aF-0.16520000000000018
aF-0.13040000000000018
aF-0.07960000000000014
aF-0.3130000000000005
aF-0.39
aF-0.27700000000000047
aF-0.24359999999999887
aF-0.08320000000000027
aF-0.6022999999999998
aF-0.07300000000000006
aF-0.02099999999999978
aF-0.1840000000000002
aF-0.3963999999999993
aF-0.42820000000000075
aF-0.06100000000000033
aF-0.6520000000000006
aF-0.17599999999999963
aF-0.07900000000000047
aF-0.4314999999999999
aF-0.11099999999999978
aF-0.17599999999999963
aF-0.05919999999999974
aF-0.044999999999999665
aF-0.342
aF-0.10400000000000055
aF-0.32199999999999956
aF-0.08560000000000001
aF-0.04380000000000032
aF-0.161
aF-0.2859999999999998
aF-0.021000000000000178
aF-0.2223
aF-0.16799999999999987
aF-0.13200000000000064
aF-0.11699999999999974
aF-0.021000000000000178
aF-0.19919999999999957
aF-0.07300000000000006
aF-0.3919999999999998
aF-0.18160000000000007
aF-0.43810000000000016
aF-0.13899999999999987
aF-0.12399999999999954
aF-0.132
aF-0.08499999999999981
aF-0.3720000000000002
aF-0.18640000000000026
aF-0.38299999999999945
aF-0.10399999999999993
aF-0.07300000000000059
aF-0.4370000000000008
aF-0.19999999999999984
aF-0.24999999999999956
aF-0.32199999999999956
aF-0.12400000000000018
aF-0.132
aF-0.8091999999999994
aF-0.0025000000000001666
aF-0.11099999999999978
aF-0.7069999999999994
aF-0.08500000000000034
aF-0.16799999999999987
aF-0.41999999999999904
aF-0.18399999999999944
aF-0.2850000000000003
aF-0.045000000000000165
aF-0.4809000000000004
aF-0.07899999999999993
aF-0.12400000000000018
aF-0.013200000000000043
aF-0.4052000000000003
aF-0.31660000000000016
aF-0.39860000000000095
aF-0.4259999999999989
aF-0.049999999999999614
aF-0.09099999999999966
aF-0.03700000000000023
aF-0.045000000000000165
aF-0.09659999999999962
aF-0.3130000000000005
aF-0.13899999999999924
aF-0.43369999999999964
aF-0.08260000000000006
aF-0.1460000000000003
aF-0.16799999999999923
aF-0.029999999999999555
aF-0.3389999999999999
aF-0.292
aF-0.23390000000000022
aF-0.09100000000000023
aF-0.10399999999999993
aF-0.07300000000000006
aF-0.027500000000000056
aF-0.010799999999999955
aF-0.03499999999999989
aF-0.17600000000000104
aF-0.27859999999999957
aF-0.13899999999999924
aF-0.022199999999999866
aF-0.09800000000000007
aF-0.10820000000000007
aF-0.2950000000000001
aF-0.03500000000000027
aF-0.4140000000000013
aF-0.2187000000000004
aF-0.09099999999999966
aF-0.11700000000000094
aF-0.13549999999999995
aF-0.03499999999999989
aF-0.5400000000000008
aF-0.132
aF-0.3279999999999998
aF-0.03500000000000027
aF-0.26800000000000074
aF-0.0670000000000002
aF-0.3719999999999983
aF-0.07899999999999993
aF-0.3520000000000006
aF-0.07899999999999993
aF-0.0808
aF-0.2160000000000003
aF-0.17999999999999955
aF-0.13900000000000046
aF-0.05049999999999978
aF-0.3952999999999999
aF-0.3720000000000002
aF-0.10399999999999993
aF-0.2680000000000003
aF-0.0580000000000004
aF-0.06580000000000034
aF-0.012000000000000356
aF-0.08499999999999981
aF-0.09099999999999966
aF-0.09099999999999914
aF-0.25180000000000013
aF-0.044999999999999665
aF-0.1319999999999993
aF-0.019
aF-0.06699999999999967
aF-1.595000000000007
aF-2.3179999999999943
aF-0.09800000000000007
aF-0.0174999999999995
aF-0.33199999999999935
aF-0.4650000000000001
aF-0.10679999999999962
aF-0.382
aF-0.132
aF-0.16799999999999987
aF-0.40190000000000065
aF-0.3720000000000002
aF-0.19200000000000073
aF-0.20800000000000035
aF-0.07900000000000047
aF-0.34300000000000036
aF-0.050999999999999955
aF-0.053499999999999895
aF-0.5050000000000002
aF-0.2850000000000003
aF-0.32699999999999946
aF-0.061000000000000866
aF0.005400000000000017
aF-0.08499999999999981
aF-0.23299999999999993
aF-0.10399999999999993
aF-0.2250000000000001
aF-0.04140000000000003
aF-0.15780000000000036
aF-0.2590000000000009
aF-0.0753999999999998
aF-0.05000000000000006
aF-0.1728
aF-0.33199999999999935
aF-0.0374
aF-0.2590000000000009
aF-1.2089999999999987
aF-0.14599999999999966
aF-0.16590000000000102
aF-0.10400000000000055
aF-0.08560000000000001
aF-0.35
aF-0.23299999999999993
aF-0.045000000000000165
aF-0.09799999999999946
aF-0.07060000000000033
aF-0.15299999999999953
aF-0.16799999999999987
aF-0.22740000000000019
aF-0.24999999999999956
aF-0.14599999999999966
aF-0.5783999999999997
aF-0.161
aF-0.1460000000000003
aF-0.07300000000000006
aF-0.045000000000000165
aF-0.18159999999999937
aF-0.02799999999999978
aF-0.3609999999999988
aF-0.37300000000000055
aF-0.382
aF-0.5339999999999999
aF-0.03500000000000027
aF-0.382
aF-0.4480000000000005
aF-0.161
aF-0.06100000000000033
aF-0.11700000000000033
aF-0.13200000000000064
aF-0.08320000000000027
aF-0.09100000000000023
aF-0.192
aF-0.07900000000000047
aF-0.132
aF-0.2250000000000001
aF-0.2500000000000011
aF-0.0670000000000002
aF-0.18399999999999944
aF-0.19200000000000073
aF-0.11699999999999974
aF-0.3520000000000006
aF-0.05200000000000028
aF-0.0609999999999998
aF-0.05000000000000006
aF-0.08500000000000034
aF-0.161
aF-0.26800000000000074
aF-0.2160000000000011
aF-0.12880000000000108
aF-0.08499999999999927
aF-0.3642999999999996
aF-0.25270000000000037
aF-0.08499999999999981
aF-0.1919999999999993
aF-0.03899999999999982
aF-0.24199999999999972
aF-0.5868000000000003
aF-0.046999999999999945
aF-0.08500000000000034
aF-0.08080000000000054
aF-0.015999999999999914
aF-0.0010000000000002
aF-0.3719999999999993
aF-0.2160000000000003
aF-0.03899999999999982
aF-0.008400000000000223
aF-0.11279999999999987
aF-0.132
aF-0.32199999999999956
aF-0.0574000000000002
aF-0.11099999999999978
aF-0.3290000000000001
aF-0.054000000000000506
aF-0.22980000000000028
aF-1.1996999999999982
aF-0.1530000000000002
aF-0.06520000000000013
aF-0.3440000000000016
aF-0.025000000000000112
aF-0.0952000000000004
aF-0.2850000000000003
aF-0.4074
aF-0.3880000000000011
aF0.031999999999999994
aF-0.9473999999999995
aF0.00779999999999975
aF-0.16799999999999987
aF-0.7317999999999998
aF-0.47099999999999786
aF-1.0959999999999968
aF-0.5279999999999991
aF-0.9640000000000013
aF-0.5919000000000003
aF-1.1724000000000023
aF-0.471
aF-0.012
aF-0.044999999999999665
aF-0.4139999999999997
aF-0.707000000000002
aF-0.06699999999999967
aF-0.17599999999999963
aF-0.2589999999999993
asS'radeg'
p7
(lp8
F185.17927725
aF229.27453745
aF352.82255609
aF242.60130761
aF295.45454
aF314.60805821
aF155.868208
aF276.49640558
aF164.86655343
aF130.05340694
aF344.36658348
aF133.1492122
aF199.60130946
aF97.6962832
aF202.10753586
aF38.03925832
aF99.1709899
aF39.42417105
aF348.9728951
aF318.39996428
aF154.1869313
aF25.920321
aF40.710263
aF24.4807896
aF22.38432607
aF7.14294391
aF100.956125
aF70.73239572
aF4.05282489
aF130.24683
aF164.64625
aF173.86227761
aF259.745158
aF262.16643587
aF323.39156386
aF332.41809696
aF62.31526458
aF73.023529
aF229.864621
aF254.53687662
aF303.82246344
aF32.60805939
aF33.08745204
aF129.882555
aF324.5363817
aF173.76563955
aF173.96467598
aF24.47323633
aF175.87546818
aF176.21025302
aF176.42621755
aF176.59806595
aF176.6943549
aF176.62946929
aF177.84380061
aF178.22074569
aF179.79170864
aF181.31299541
aF183.37295564
aF183.40535538
aF25.62214619
aF183.77736201
aF26.23260349
aF184.80621518
aF186.44278217
aF187.5829607
aF187.61200682
aF188.0299564
aF189.31824213
aF189.81152931
aF192.21563556
aF196.23948715
aF197.66593185
aF198.184404
aF198.08226118
aF198.18243983
aF28.21056043
aF200.16476095
aF202.33797458
aF203.10648096
aF203.51057427
aF29.29003181
aF28.73388206
aF206.8155975
aF209.32182791
aF210.59492391
aF215.34660899
aF215.22298633
aF216.8873851
aF31.14286807
aF216.70116957
aF219.00233452
aF31.7933571
aF221.51276843
aF221.88635
aF223.34595295
aF32.41738585
aF224.2277154
aF224.589654
aF227.68643293
aF228.81268745
aF228.36944608
aF230.45062516
aF229.77575899
aF230.03566163
aF233.91638034
aF33.17885768
aF34.19741441
aF233.81749527
aF238.0731131
aF1.57989768
aF242.56263131
aF237.80804694
aF238.23450511
aF239.41996384
aF239.39688111
aF240.45977937
aF242.90185594
aF242.5163096
aF4.67444682
aF245.75060965
aF246.00537196
aF247.07201739
aF247.11729584
aF248.21270978
aF4.82110857
aF250.28423028
aF247.82327274
aF253.37389693
aF253.43159405
aF256.12862454
aF256.1160143
aF255.65168166
aF257.52046619
aF257.81550787
aF257.39423954
aF258.09668263
aF259.96416917
aF259.41871055
aF260.64402441
aF261.4392882
aF264.74802639
aF266.03625473
aF38.83303396
aF39.25796235
aF267.65981146
aF268.4187283
aF269.75663297
aF39.24419932
aF270.38011626
aF270.7788895
aF270.62859229
aF273.49864927
aF272.63183367
aF275.01637711
aF275.45742682
aF5.30552969
aF276.95618136
aF277.29575503
aF41.5921471
aF278.0645537
aF278.68197916
aF280.90045587
aF285.00348191
aF283.92035082
aF284.25670772
aF286.33655587
aF287.26827933
aF287.79095379
aF288.88845793
aF288.70920374
aF289.82378283
aF290.26762895
aF291.28986606
aF290.72077095
aF292.10238325
aF294.29892048
aF297.39152517
aF296.74213744
aF45.04440167
aF298.01893074
aF298.56200766
aF301.3865193
aF300.90585778
aF301.83195285
aF302.87798368
aF303.499358
aF303.82246344
aF304.02502117
aF307.07764865
aF309.46546043
aF310.43369999
aF309.96614811
aF309.88733391
aF48.19348828
aF46.9079948
aF316.66600997
aF318.74070492
aF49.41685577
aF6.08448996
aF322.05086286
aF323.09795624
aF324.53501642
aF325.85375016
aF50.01226193
aF50.01490794
aF328.15117662
aF49.98187889
aF329.33269628
aF50.17789184
aF332.37443966
aF332.96387858
aF336.87882729
aF336.76279598
aF337.75152659
aF340.83875785
aF341.53348124
aF341.65314585
aF343.40804871
aF343.66450854
aF343.9737848
aF51.80201007
aF344.56475477
aF345.784188
aF347.29469878
aF348.7242512
aF349.69472685
aF53.23268735
aF351.47079806
aF351.61435306
aF352.83474132
aF354.50128085
aF355.46470937
aF359.97430297
aF55.20635971
aF54.92956767
aF54.84849645
aF293.01733807
aF57.00155963
aF347.6217929
aF348.92593172
aF57.59569971
aF58.95600133
aF7.49946974
aF64.12095506
aF64.93945456
aF65.19602982
aF66.60967804
aF66.21127039
aF67.15416174
aF67.85606392
aF80.83985376
aF70.476555
aF72.1516029
aF72.57442501
aF73.68188862
aF73.90992657
aF77.40299601
aF237.40704824
aF76.89808933
aF77.00421704
aF80.63971846
aF79.42075212
aF9.84085789
aF84.26035893
aF85.0072027
aF84.25841031
aF86.64546906
aF86.99656422
aF87.14558316
aF84.29121595
aF86.13299417
aF88.51766631
aF91.12475893
aF89.956871
aF89.956871
aF10.80248662
aF11.17166928
aF11.11104636
aF11.16361281
aF11.41815996
aF93.39859049
aF94.89448427
aF95.05968223
aF96.18283193
aF97.19046477
aF96.41031254
aF97.30496544
aF98.30259303
aF99.03661528
aF99.44840961
aF100.00719179
aF102.8771423
aF103.00843517
aF103.67843808
aF103.71392538
aF105.07515031
aF13.75583336
aF14.55924552
aF15.13830018
aF112.95165007
aF113.5132535
aF116.32895777
aF114.84104438
aF116.95716203
aF16.16729486
aF118.42217167
aF120.86944079
aF16.95276129
aF124.59239155
aF124.59977944
aF125.7081308
aF125.36723549
aF127.56612767
aF17.69675488
aF128.51329292
aF129.09589941
aF129.0740632
aF129.31868391
aF129.81584518
aF130.60467566
aF18.62217493
aF131.91829069
aF133.46168847
aF133.4813157
aF135.30205881
aF20.49631211
aF138.78917146
aF140.94619373
aF142.16661833
aF143.93826142
aF143.7114023
aF144.29928506
aF20.90515014
aF147.51040262
aF147.77938332
aF21.30214855
aF149.02466098
aF149.12435178
aF149.24099629
aF21.5366089
aF152.17974905
aF152.53198184
aF154.58869962
aF155.54401117
aF155.9803117
aF160.7021994
aF161.08714262
aF161.5629828
aF23.33410672
aF164.69890121
aF23.3214364
aF166.18522764
aF166.44145105
aF166.31278931
aF166.97677913
aF169.44813718
aF24.19934235
aF170.21570225
aF171.07232854
aF171.69281916
aF172.12589042
aF38.54602869
aF41.67869087
aF41.90601345
aF47.80929188
aF107.78487675
aF16.50853592
aF175.43597302
aF176.17068701
aF217.32734453
aF231.23239428
aF243.17406947
aF154.993446
aF39.24058599
aF40.63944014
aF354.83688137
aF114.288492
aF186.033
aF130.432596
aF130.547883
asS'BV'
p9
(lp10
F1.0
aF1.391
aF1.0200000000000005
aF0.9000000000000004
aFnan
aF0.9180000000000001
aF0.9590000000000005
aF1.1869999999999994
aF0.6200000000000001
aF1.1879999999999997
aF0.7000000000000002
aF0.8700000000000001
aF0.7000000000000002
aF0.9400000000000004
aF0.71
aF1.0090000000000003
aF1.061
aF1.0110000000000001
aF1.1100000000000003
aF1.0
aF1.25
aF1.3529999999999998
aF1.2110000000000003
aF1.0299999999999994
aF0.9699999999999998
aF1.1399999999999988
aF1.049999999999999
aF1.5389999999999997
aF0.7569999999999997
aF1.2199999999999989
aF2.450000000000001
aF1.5089999999999986
aF1.5699999999999985
aF1.5660000000000007
aF1.5039999999999996
aF1.5020000000000007
aF1.4909999999999997
aF1.549999999999999
aF1.1500000000000004
aF1.484
aF0.907
aF0.7700000000000005
aF1.4350000000000005
aF0.7300000000000004
aF0.9499999999999993
aF1.0300000000000002
aF0.7699999999999996
aF0.6299999999999999
aF0.9099999999999984
aF0.7499999999999991
aF0.8399999999999999
aF1.0
aF1.04
aF0.6639999999999997
aF0.9739999999999993
aF0.9199999999999999
aF0.976
aF1.0220000000000002
aF0.6399999999999997
aF0.7390000000000008
aF0.5300000000000002
aF0.8200000000000003
aF0.665
aF0.7000000000000011
aF0.4980000000000002
aF0.9900000000000011
aF0.7300000000000004
aF0.6600000000000001
aF0.6799999999999997
aF1.2469999999999999
aF0.6799999999999988
aF1.3759999999999994
aF1.0899999999999999
aF0.6199999999999992
aF0.5499999999999998
aF0.9189999999999996
aF0.5999999999999996
aF1.0000000000000009
aF0.7300000000000004
aF0.5999999999999996
aF0.6899999999999995
aF0.8300000000000001
aF0.9189999999999996
aF0.4900000000000002
aF0.5999999999999996
aF1.351
aF1.1000000000000014
aF0.6099999999999994
aF0.6790000000000003
aF0.7199999999999998
aF0.875
aF0.995000000000001
aF1.1640000000000001
aF0.7800000000000011
aF0.7800000000000011
aF1.0279999999999996
aF1.4799999999999995
aF0.6500000000000004
aF0.5999999999999996
aF0.625
aF0.7560000000000002
aF0.7080000000000002
aF0.6310000000000002
aF0.9300000000000006
aF1.008
aF0.8900000000000006
aF0.8519999999999985
aF0.6370000000000005
aF1.1909999999999998
aF0.6200000000000001
aF0.5199999999999996
aF0.7800000000000002
aF1.0139999999999993
aF1.0420000000000007
aF0.6000000000000005
aF1.2300000000000004
aF0.7699999999999996
aF0.6300000000000008
aF1.045
aF0.6799999999999997
aF0.7699999999999996
aF0.5969999999999995
aF0.5699999999999994
aF0.96
aF0.6700000000000008
aF0.9399999999999995
aF0.641
aF0.5680000000000005
aF0.75
aF0.9009999999999998
aF0.5200000000000005
aF0.827
aF0.7599999999999998
aF0.7100000000000009
aF0.6899999999999995
aF0.5200000000000005
aF0.7989999999999995
aF0.6200000000000001
aF1.0099999999999998
aF0.7770000000000001
aF1.0510000000000002
aF0.7199999999999998
aF0.6999999999999993
aF0.71
aF0.6399999999999997
aF0.9900000000000002
aF0.7830000000000004
aF1.0009999999999994
aF0.6699999999999999
aF0.620000000000001
aF1.0500000000000007
aF0.7999999999999998
aF0.8599999999999994
aF0.9399999999999995
aF0.7000000000000002
aF0.71
aF1.3369999999999997
aF0.47500000000000053
aF0.6799999999999997
aF1.2699999999999996
aF0.6400000000000006
aF0.7599999999999998
aF1.0349999999999993
aF0.7799999999999994
aF0.9000000000000004
aF0.5700000000000003
aF1.0890000000000004
aF0.6299999999999999
aF0.7000000000000002
aF0.5030000000000001
aF1.0220000000000002
aF0.9340000000000002
aF1.016000000000001
aF1.0399999999999991
aF0.5799999999999992
aF0.6499999999999995
aF0.5550000000000006
aF0.5700000000000003
aF0.6579999999999995
aF0.9300000000000006
aF0.7199999999999989
aF1.0469999999999997
aF0.6360000000000001
aF0.7300000000000004
aF0.7599999999999989
aF0.5399999999999991
aF0.9569999999999999
aF0.907
aF0.8410000000000002
aF0.6500000000000004
aF0.6699999999999999
aF0.6200000000000001
aF0.5350000000000001
aF0.4969999999999999
aF0.5499999999999998
aF0.7700000000000014
aF0.8919999999999995
aF0.7199999999999989
aF0.5229999999999997
aF0.6600000000000001
aF0.6760000000000002
aF0.9100000000000001
aF0.5500000000000007
aF1.0300000000000011
aF0.8230000000000004
aF0.6499999999999995
aF0.6900000000000013
aF0.7149999999999999
aF0.5499999999999998
aF1.1400000000000006
aF0.71
aF0.9459999999999997
aF0.5500000000000007
aF0.8800000000000008
aF0.6100000000000003
aF0.9899999999999984
aF0.6299999999999999
aF0.9700000000000006
aF0.6299999999999999
aF0.633
aF0.8200000000000003
aF0.7749999999999995
aF0.7200000000000006
aF0.5809999999999995
aF1.013
aF0.9900000000000002
aF0.6699999999999999
aF0.8800000000000003
aF0.5950000000000006
aF0.6080000000000005
aF0.5000000000000009
aF0.6399999999999997
aF0.6499999999999995
aF0.6499999999999986
aF0.8620000000000001
aF0.5699999999999994
aF0.7099999999999991
aF0.516
aF0.6099999999999994
aF1.6100000000000012
aF1.6899999999999995
aF0.6600000000000001
aF0.512999999999999
aF0.9499999999999993
aF1.0750000000000002
aF0.6739999999999995
aF1.0
aF0.71
aF0.7599999999999998
aF1.0190000000000006
aF0.9900000000000002
aF0.7900000000000009
aF0.8100000000000005
aF0.6300000000000008
aF0.9610000000000003
aF0.5819999999999999
aF0.5869999999999997
aF1.1100000000000003
aF0.9000000000000004
aF0.9449999999999994
aF0.6000000000000014
aF0.45199999999999996
aF0.6399999999999997
aF0.8399999999999999
aF0.6699999999999999
aF0.8300000000000001
aF0.5640000000000001
aF0.7460000000000004
aF0.870000000000001
aF0.6239999999999997
aF0.5800000000000001
aF0.766
aF0.9499999999999993
aF0.556
aF0.870000000000001
aF1.5199999999999996
aF0.7299999999999995
aF0.7570000000000014
aF0.6700000000000008
aF0.641
aF0.968
aF0.8399999999999999
aF0.5700000000000003
aF0.6599999999999993
aF0.6160000000000005
aF0.7399999999999993
aF0.7599999999999998
aF0.8330000000000002
aF0.8599999999999994
aF0.7299999999999995
aF1.1719999999999997
aF0.75
aF0.7300000000000004
aF0.6200000000000001
aF0.5700000000000003
aF0.7769999999999992
aF0.5359999999999996
aF0.9799999999999986
aF0.9910000000000005
aF1.0
aF1.1349999999999998
aF0.5500000000000007
aF1.0
aF1.0600000000000005
aF0.75
aF0.6000000000000005
aF0.6900000000000004
aF0.7100000000000009
aF0.6370000000000005
aF0.6500000000000004
aF0.79
aF0.6300000000000008
aF0.71
aF0.8300000000000001
aF0.8600000000000012
aF0.6100000000000003
aF0.7799999999999994
aF0.7900000000000009
aF0.6899999999999995
aF0.9700000000000006
aF0.5840000000000005
aF0.5999999999999996
aF0.5800000000000001
aF0.6400000000000006
aF0.75
aF0.8800000000000008
aF0.8200000000000012
aF0.7060000000000013
aF0.6399999999999988
aF0.9829999999999997
aF0.8630000000000004
aF0.6399999999999997
aF0.7899999999999991
aF0.5599999999999996
aF0.8499999999999996
aF1.1790000000000003
aF0.5739999999999998
aF0.6400000000000006
aF0.6330000000000009
aF0.5099999999999998
aF0.47000000000000064
aF0.9899999999999993
aF0.8200000000000003
aF0.5599999999999996
aF0.49100000000000055
aF0.6829999999999998
aF0.71
aF0.9399999999999995
aF0.5940000000000003
aF0.6799999999999997
aF0.9470000000000001
aF0.588000000000001
aF0.8360000000000003
aF1.5169999999999995
aF0.7400000000000002
aF0.6070000000000002
aF0.9620000000000015
aF0.5300000000000002
aF0.6560000000000006
aF0.9000000000000004
aF1.024
aF1.0060000000000011
aF0.33000000000000007
aF1.4139999999999997
aF0.44400000000000084
aF0.7599999999999998
aF1.287
aF1.0799999999999983
aF1.4799999999999986
aF1.129999999999999
aF1.4220000000000006
aF1.1830000000000003
aF1.508000000000001
aF1.08
aF0.5
aF0.5699999999999994
aF1.0299999999999998
aF1.2700000000000014
aF0.6099999999999994
aF0.7699999999999996
aF0.8699999999999992
asS'Binary_Cut'
p11
(lp12
I01
aI00
aI00
aI00
aI01
aI01
aI00
aI00
aI00
aI00
aI00
aI01
aI00
aI00
aI00
aI00
aI00
aI00
aI01
aI00
aI00
aI00
aI00
aI00
aI00
aI00
aI00
aI00
aI00
aI00
aI00
aI00
aI00
aI00
aI00
aI00
aI00
aI00
aI00
aI00
aI00
aI00
aI00
aI00
aI00
aI00
aI00
aI00
aI01
aI00
aI00
aI00
aI00
aI00
aI00
aI00
aI00
aI00
aI00
aI00
aI00
aI00
aI00
aI00
aI00
aI00
aI00
aI00
aI01
aI01
aI00
aI00
aI00
aI00
aI00
aI00
aI00
aI00
aI00
aI00
aI00
aI00
aI00
aI00
aI00
aI00
aI00
aI00
aI00
aI00
aI01
aI00
aI00
aI00
aI00
aI00
aI00
aI00
aI01
aI00
aI00
aI00
aI00
aI00
aI00
aI00
aI00
aI00
aI00
aI00
aI00
aI00
aI00
aI00
aI00
aI01
aI00
aI00
aI00
aI00
aI00
aI00
aI00
aI00
aI00
aI00
aI00
aI00
aI00
aI00
aI00
aI00
aI00
aI00
aI00
aI00
aI00
aI00
aI00
aI00
aI00
aI00
aI00
aI00
aI00
aI00
aI00
aI00
aI00
aI00
aI00
aI00
aI00
aI00
aI00
aI00
aI00
aI00
aI00
aI00
aI00
aI00
aI00
aI00
aI00
aI00
aI01
aI00
aI00
aI00
aI00
aI00
aI00
aI00
aI00
aI00
aI00
aI00
aI00
aI00
aI00
aI00
aI00
aI00
aI00
aI00
aI00
aI00
aI00
aI01
aI01
aI01
aI01
aI00
aI00
aI00
aI00
aI00
aI00
aI00
aI00
aI00
aI00
aI00
aI00
aI00
aI00
aI00
aI00
aI00
aI00
aI00
aI00
aI00
aI00
aI00
aI00
aI00
aI00
aI00
aI00
aI00
aI01
aI00
aI00
aI00
aI00
aI00
aI00
aI00
aI00
aI00
aI00
aI00
aI00
aI00
aI00
aI00
aI00
aI00
aI00
aI00
aI00
aI00
aI01
aI00
aI00
aI00
aI01
aI00
aI00
aI00
aI00
aI00
aI00
aI00
aI00
aI00
aI00
aI00
aI00
aI01
aI00
aI00
aI00
aI00
aI00
aI00
aI00
aI00
aI00
aI00
aI00
aI00
aI01
aI01
aI00
aI00
aI00
aI00
aI00
aI00
aI00
aI00
aI00
aI00
aI00
aI00
aI00
aI00
aI00
aI00
aI00
aI00
aI00
aI00
aI00
aI00
aI00
aI00
aI00
aI00
aI00
aI00
aI00
aI00
aI00
aI00
aI00
aI00
aI00
aI00
aI00
aI00
aI00
aI00
aI00
aI00
aI00
aI00
aI00
aI00
aI00
aI00
aI00
aI00
aI00
aI01
aI00
aI01
aI00
aI00
aI00
aI00
aI00
aI00
aI00
aI00
aI00
aI00
aI01
aI00
aI00
aI00
aI00
aI00
aI00
aI00
aI00
aI00
aI00
aI00
aI00
aI00
aI00
aI00
aI00
aI00
aI00
aI00
aI00
aI00
aI00
aI00
aI00
aI00
aI00
aI00
aI00
aI00
aI00
aI00
aI00
aI01
aI01
aI00
aI00
aI00
aI00
aI00
aI00
asS'Type'
p13
(lp14
V*i*
p15
aV*
p16
aVV*
p17
aVPM*
p18
aV**
p19
aV*i*
p20
ag16
ag16
aVPM*
p21
ag16
aVV*?
p22
aV*i*
p23
aVPM*
p24
aVPM*
p25
aVPM*
p26
ag16
aVV*
p27
ag16
aV*i*
p28
aVPM*
p29
ag16
ag16
ag16
aVPM*
p30
ag16
aVPM*
p31
ag16
aVPM*
p32
aVpr*
p33
aVPM*
p34
aVPM*
p35
aVPM*
p36
aVPM*
p37
aVpr*
p38
aVPM*
p39
aVPM*
p40
aVPM*
p41
aVPM*
p42
aVBY*
p43
aVPM*
p44
aVV*
p45
aVpr*
p46
aVPM*
p47
ag16
ag16
ag16
ag16
ag16
aV*i*
p48
ag16
aVPM*
p49
ag16
ag16
aVPM*
p50
ag16
ag16
aVPM*
p51
aVPM*
p52
aVPM*
p53
ag16
ag16
aVPM*
p54
ag16
ag16
aVPM*
p55
ag16
aV*iC
p56
aVPM*
p57
aV**
p58
aV*i*
p59
ag16
aVPM*
p60
aVPM*
p61
aVPM*
p62
ag16
ag16
ag16
ag16
aVPM*
p63
ag16
ag16
aVPM*
p64
ag16
aVV*
p65
aVPM*
p66
ag16
aVPM*
p67
ag16
aVPM*
p68
aVPM*
p69
aV*i*
p70
aVBY*
p71
aVV*
p72
aVPM*
p73
aVPM*
p74
ag16
ag16
aVPM*
p75
aV**
p76
aVPM*
p77
aVPM*
p78
aVPM*
p79
aVPM*
p80
aVPM*
p81
aVV*
p82
ag16
ag16
aVPM*
p83
ag16
ag16
aVPM*
p84
aVPM*
p85
aVPM*
p86
ag16
aVpr*
p87
aV**
p88
aVPM*
p89
ag16
ag16
aVPM*
p90
aVPM*
p91
aVpr*
p92
ag16
ag16
ag16
ag16
aVPM*
p93
ag16
ag16
ag16
aVPM*
p94
aVPM*
p95
aVV*
p96
ag16
ag16
aVPM*
p97
aVPM*
p98
aVPM*
p99
aVPM*
p100
ag16
ag16
aVPM*
p101
aVPM*
p102
aVPM*
p103
aV*iC
p104
aVpr*
p105
ag16
ag16
aVPM*
p106
ag16
ag16
aVPM*
p107
ag16
aVPM*
p108
aVPM*
p109
ag16
ag16
ag16
ag16
ag16
ag16
ag16
ag16
aVPM*
p110
ag16
aVSB*
p111
aV**
p112
ag16
ag16
ag16
ag16
ag16
ag16
aVPM*
p113
aVPM*
p114
ag16
ag16
ag16
aVPM*
p115
ag16
ag16
ag16
aVPM*
p116
aVPM*
p117
aVPM*
p118
ag16
aVBY*
p119
aVV*
p120
ag16
aV**
p121
aV**
p122
aV**
p123
aV**
p124
aVPM*
p125
ag16
ag16
ag16
ag16
ag16
ag16
aVPM*
p126
aVPM*
p127
ag16
ag16
aVPM*
p128
aVPM*
p129
aVPM*
p130
aVPM*
p131
aVPM*
p132
aVPM*
p133
aVPM*
p134
ag16
ag16
ag16
aVPM*
p135
aVPM*
p136
aVPM*
p137
ag16
aVPM*
p138
ag16
aVPM*
p139
aVPM*
p140
aV**
p141
aVPM*
p142
aVPM*
p143
ag16
ag16
aVBY*
p144
aVPM*
p145
aVPM*
p146
ag16
aVPM*
p147
aVPM*
p148
ag16
ag16
aVPM*
p149
ag16
ag16
ag16
ag16
ag16
aVPM*
p150
ag16
aVPM*
p151
aV*i*
p152
ag16
aVPM*
p153
ag16
aV*i*
p154
ag16
ag16
ag16
ag16
aVPM*
p155
ag16
ag16
ag16
ag16
aVPM*
p156
ag16
ag16
aV*i*
p157
ag16
aVV*
p158
aVPM*
p159
aVPM*
p160
ag16
aVPM*
p161
ag16
aVPM*
p162
aVPM*
p163
aVPM*
p164
ag16
aVPM*
p165
aV*i*
p166
aV*i*
p167
ag16
aVPM*
p168
aVPM*
p169
aVPM*
p170
ag16
ag16
ag16
ag16
aVPM*
p171
ag16
ag16
aVPM*
p172
aV*iC
p173
aVPM*
p174
ag16
ag16
ag16
ag16
ag16
aVPM*
p175
ag16
ag16
ag16
ag16
ag16
ag16
aVV*
p176
ag16
aVPM*
p177
aVPM*
p178
ag16
aVPM*
p179
aVPM*
p180
ag16
aVPM*
p181
aVBY*
p182
aVPM*
p183
aVV*
p184
ag16
ag16
aVBY*
p185
aVPM*
p186
aVPM*
p187
ag16
aVPM*
p188
aVPM*
p189
aVPM*
p190
ag16
aVPM*
p191
aVPM*
p192
ag16
aV*i*
p193
aVPM*
p194
aV*i*
p195
ag16
aVPM*
p196
ag16
ag16
ag16
aVPM*
p197
aVPM*
p198
ag16
ag16
ag16
aV**
p199
ag16
aVPM*
p200
aVPM*
p201
aVPM*
p202
aVV*
p203
aVPM*
p204
aVPM*
p205
ag16
aVPM*
p206
ag16
ag16
ag16
ag16
ag16
aVPM*
p207
ag16
aVPM*
p208
aVPM*
p209
aVPM*
p210
aVPM*
p211
ag16
aVPM*
p212
aVPM*
p213
ag16
ag16
aVV*
p214
aVPM*
p215
aVPM*
p216
aVPM*
p217
aVV*
p218
aVV*
p219
aVPM*
p220
aV*i*
p221
aV*i*
p222
aVPM*
p223
ag16
aV*iC
p224
aVCl*
p225
aV*iC
p226
aV*iC
p227
asS'Spec'
p228
(lp229
VG8II-III
p230
aVK4III
p231
aVG8III
p232
aVK0V
p233
aV~
p234
aVG6III:
p235
aVG5
p236
aVK1.5III
p237
aVG1V
p238
aVK1III
p239
aVG2.5IVa
p240
aVG8V
p241
aVG7V
p242
aVK0III-IV
p243
aVG4V
p244
aVG3III:
p245
aVK1III
p246
aVG5III:
p247
aVK0III
p248
aVK5
p249
aVK2
p250
aVK5
p251
aVK0
p252
ag234
aVG5
p253
aVK4Vk:
p254
aVK0V
p255
aVM2
p256
aVG8V
p257
aVM3.5
p258
aVM2.5
p259
aVM1.5
p260
aVM1.5V
p261
aVM3V
p262
aVM1.5
p263
aVM3.5V
p264
aVM3.5
p265
aVM3.5
p266
aVM5.0V
p267
aVM2.0V
p268
aVK2+V
p269
aVG9V
p270
aVM2.5V
p271
aVG4
p272
aVG0
p273
aVG9III
p274
aVK0
p275
aVG1V
p276
aVK2V+
p277
aVG6V
p278
aVK0V
p279
aVK2
p280
aVK0
p281
aVG2V
p282
aVK0III
p283
aVK1Vp...
p284
aVK3Vk:
p285
aVG9III
p286
aVG0
p287
aVG5
p288
aVF9V
p289
aVG5
p290
aVG5IV
p291
aVG5
p292
aVF8/G0V
p293
aVK0III-IV
p294
aVG9V
p295
aVG0V
p296
aVG3V
p297
aVK2III
p298
aVG8VFe-1.0
p299
aVK9Vk:
p300
aVK3V
p301
aVG0V
p302
aVF8V
p303
aVK1V
p304
aVG0V
p305
aVK1IV
p306
aVG7IV-V
p307
aVG0V
p308
aVK0
p309
aVG9VCN+1
p310
aVG8.5III
p311
aVF6IV+M2
p312
aVG2V
p313
aVK3III
p314
aVK4Vk:
p315
aVG3V
p316
aVG4V
p317
aVK0V
p318
aVK0V+MV
p319
aVK3V
p320
aVK2III
p321
aVG6V
p322
aVK0V
p323
aVK0
p324
aVK1II-III
p325
aVG0
p326
aVF8III
p327
aVG0VFe+0.4
p328
aVG6IV
p329
aVG6IV-V
p330
aVG4V
p331
aVG5
p332
aVK0III
p333
aVK2IV
p334
aVK2V
p335
aVG0
p336
aVK4III:
p337
aVG1V
p338
aVF7V
p339
aVG9IV-V
p340
aVK1IVa
p341
aVK0
p342
aVG1V
p343
aVK2III
p344
aVG6V
p345
aVG3V
p346
aVK0III
p347
aVG0V
p348
aVG9V
p349
aVG5V
p350
aVG1V
p351
aVK0III/IV
p352
aVG0
p353
aVK0
p354
aVG0
p355
aVG3V
p356
aVG6V
p357
aVK0
p358
aVF8V
p359
aVK0IV-V
p360
aVG8V
p361
aVG3IV
p362
aVG5V
p363
aVG0
p364
aVK0
p365
aVG1Vw...
p366
aVK2
p367
aVG8.5V
p368
aVK2II
p369
aVG5V
p370
aVG3IV-V
p371
aVG5IV
p372
aVG0
p373
aVK3V
p374
aVG5IV
p375
aVG9III
p376
aVG1V
p377
aVG5V
p378
aVK3.5Vk:
p379
aVK0V
p380
aVK0IV/V
p381
aVK1III
p382
aVG6V
p383
aVG5
p384
aVK2III
p385
aVF7V
p386
aVG5
p387
aVK0III
p388
aVG0
p389
aVG8V
p390
aVG8
p391
aVG5IV/V
p392
aVG8V
p393
aVG0V+k1V
p394
aVK0+M3.5V
p395
aVG1V
p396
aVG5
p397
aVF8V
p398
aVK0
p399
aVK0III/IV
p400
aVK0III
p401
aVK3III-IV
p402
aVG1V
p403
aVG2IV
p404
aVG0IV
p405
aVG0V
p406
aVG5
p407
aVG9IV
p408
aVG5IV
p409
aVG9IIIb
p410
aVG2V
p411
aVG7IV-V
p412
aVG5V
p413
aVF8V
p414
aVK2.5V
p415
aVK2+V
p416
aVG5
p417
aVG3IV-V
p418
aVG3V
p419
aVG0V
p420
aVF8IV:
p421
aVG0
p422
aVF8V
p423
aVG8V
p424
aVK0
p425
aVG6V
p426
aVG0
p427
aVG2/G3IV/V
p428
aVG5V
p429
aVK2V
p430
aVF7V
p431
aVK0
p432
aVG9.5V
p433
aVG1.5V
p434
aVG5V
p435
aVG8V
p436
aVG2V:
p437
aVK3/K4IV
p438
aVG0
p439
aVK1III
p440
aVF8V
p441
aVG8IV
p442
aVG0/G1V
p443
aVK0
p444
aVG0.5V
p445
aVK3V
p446
aVG0V
p447
aVG1VFe+0.3
p448
aVG9VCN+1
p449
aVG9IV-V
p450
aVG8IV
p451
aVF8V
p452
aVK3V
p453
aVK
p454
aVG0IV
p455
aVK2Vk:
p456
aVG3V
p457
aVG0
p458
aVF7V
p459
aVG0
p460
aVG5
p461
aVG2V
p462
aVK0
p463
aVF9.5V
p464
aVG2V
p465
aVF8V
p466
aVF8
p467
aVK7
p468
aVK2
p469
aVG0
p470
aVF8V
p471
aVG5
p472
aVK2III
p473
aVG3IV/V
p474
aVK2V
p475
aVG6.5IV-V
p476
aVG5V
p477
aVK0III
p478
aVK0
p479
aVG5IV
p480
aVG8V
p481
aVF8V
p482
aVK0III
p483
aVF8
p484
aVG0V
p485
aVK1III
p486
aVG5
p487
aVK0III
p488
aVG4V
p489
aVF6V
p490
aVG0
p491
aVK0V
p492
aVG4IV-V
p493
aVK0
p494
aVF9.5V
p495
aVG4V
p496
aVK0
p497
aVG4V
p498
aVG0V
p499
aVK0V
p500
aVK2.5V
p501
aVF8
p502
ag234
aVM2
p503
aVG5V
p504
aVG5
p505
aVG7VFe-1CH-0.5
p506
aVG6VFe-0.9
p507
aVG5
p508
aVG9IV/V
p509
aVG0
p510
aVG5
p511
aVG1.5V
p512
aVG5
p513
aVG8V
p514
aVK5
p515
aVK1IV
p516
aVG6V
p517
aVK0III
p518
aVG5IV/V
p519
aVG0
p520
aVG1V
p521
aVF8V
p522
aVK0IV-V
p523
aVG0V
p524
aVG5IV
p525
aVK0
p526
aVG5
p527
aVK2III
p528
aVF6IV-V
p529
aVK0IIIb
p530
aVK3Vk:
p531
aVG9V
p532
aVG2/3V
p533
aVG5V+M7-8+L2-3
p534
aVG5
p535
aVG0
p536
aVG0
p537
aVG8+V
p538
aVG1/2V
p539
aVG6VCN+0.5
p540
aVG5III
p541
aVK1IV
p542
aVG0
p543
aVG8IV-VFe+0.5
p544
aVK0V
p545
aVG6V
p546
aVG5
p547
aVG0
p548
aVF9.5V
p549
aVF9VFe+0.3
p550
aVG0
p551
aVG6V
p552
aVK0IV
p553
aVK0
p554
aVG5
p555
aVG0V
p556
aVK0III-IV
p557
aVG0
p558
aVF9VFe+0.5
p559
aVK0V
p560
aVG0V
p561
aVK1.5V
p562
aVK6Vk:
p563
aVF8
p564
aVF8
p565
aVG2V
p566
aVF7V
p567
aVF7V
p568
aVK0V
p569
aVG5IV
p570
aVG0V
p571
aVF7V
p572
aVG5V
p573
aVG6V
p574
aVK2IV-V
p575
aVG2/G3V
p576
aVG5V
p577
aVK0
p578
aVG1V
p579
aVK0
p580
aVK2
p581
aVG5
p582
aVG0V
p583
aVK0III/IV
p584
aVF9V
p585
aVG4V
p586
aVK0
p587
aVK2V
p588
aVK0
p589
aVF0V
p590
aVM0
p591
aVF2
p592
aVG5
p593
aVK2III
p594
aVK5
p595
aVM4
p596
aVK8
p597
aVK7Vk
p598
aVK2III
p599
aVM3V
p600
aVK1IIIb
p601
aVF4V
p602
aVF8V
p603
aVK1IV
p604
aVGIV/V
p605
ag234
aVF7
p606
aVG9.3
p607
asS'rv'
p608
(lp609
F44.4
aF-17.87
aF-59.86
aF-5.5
aF0.0
aF3.81
aF7.08
aF32.17
aF12.6
aF14.62
aF-31.2
aF26.6
aF-8.5
aF39.17
aF4.9
aF-5.96
aF2.45
aF8.98
aF-25.49
aF0.0
aF0.0
aF0.0
aF0.0
aF0.0
aF0.0
aF0.0
aF0.0
aF29.0
aF-5.9
aF0.0
aF0.0
aF0.0
aF6.353
aF-3.5
aF18.0
aF-12.0
aF0.0
aF-9.1
aF-9.5
aF6.4
aF-54.2
aF53.1
aF7.0
aF0.0
aF0.0
aF-6.5
aF0.0
aF35.2
aF0.0
aF48.9
aF2.1
aF0.0
aF14.32
aF15.3
aF-25.83
aF0.0
aF0.0
aF-19.8
aF15.21
aF23.7
aF12.9
aF21.6
aF-43.5
aF0.0
aF-5.1
aF-27.3
aF-29.6
aF0.0
aF-13.7
aF-18.11
aF102.2
aF37.8
aF0.0
aF64.7
aF49.9
aF-12.8
aF-8.1
aF-5.9
aF-17.9
aF0.9
aF-29.07
aF-6.9
aF-16.2
aF-15.6
aF19.3
aF0.0
aF3.1
aF-18.4
aF11.8
aF0.0
aF0.0
aF-8.11
aF-14.51
aF7.5
aF-12.5
aF1.0
aF25.39
aF0.0
aF0.0
aF38.3
aF0.0
aF3.4
aF-69.4
aF0.0
aF-53.56
aF25.8
aF40.4
aF33.7
aF-8.75
aF-2.57
aF2.6
aF-10.5
aF-25.04
aF6.09
aF-11.9
aF-30.92
aF-1.5
aF11.1
aF-3.56
aF-10.7
aF-27.9
aF10.1
aF-2.0
aF-34.42
aF0.0
aF0.0
aF-42.1
aF-15.35
aF-21.5
aF0.0
aF30.7
aF15.3
aF-46.2
aF0.0
aF27.9
aF-9.1
aF0.0
aF-39.1
aF0.0
aF-79.4
aF13.49
aF-23.5
aF-9.0
aF-53.0
aF21.4
aF-27.6
aF0.0
aF12.95
aF10.3
aF13.3
aF7.2
aF20.45
aF-18.0
aF-18.83
aF-48.85
aF-25.6
aF18.22
aF-17.4
aF-60.2
aF0.0
aF13.1
aF21.1
aF-60.9
aF0.0
aF18.4
aF-47.2
aF-72.1
aF-41.2
aF0.0
aF-25.97
aF-73.67
aF0.0
aF0.0
aF37.9
aF-57.2
aF-50.7
aF0.6
aF14.9
aF-17.6
aF0.0
aF2.6
aF-42.1
aF-12.2
aF-45.3
aF-40.8
aF20.2
aF-11.3
aF-54.2
aF13.05
aF-92.7
aF60.9
aF-12.5
aF-28.3
aF8.4
aF18.3
aF-16.5
aF-71.84
aF0.0
aF5.3
aF8.4
aF-10.1
aF0.0
aF9.1
aF0.0
aF39.6
aF39.5
aF-16.7
aF87.3
aF5.3
aF0.0
aF-24.1
aF16.39
aF4.8
aF0.0
aF-0.5
aF-13.81
aF-18.8
aF0.0
aF-1.1
aF-3.0
aF30.7
aF39.1
aF-14.0
aF7.0
aF-40.9
aF0.0
aF-23.0
aF15.5
aF11.8
aF-42.0
aF-21.6
aF-44.2
aF11.5
aF1.5
aF21.0
aF0.5
aF0.0
aF0.0
aF-10.2
aF0.0
aF0.0
aF-9.31
aF42.8
aF9.55
aF29.3
aF20.4
aF0.0
aF49.6
aF0.0
aF38.36
aF0.0
aF0.0
aF0.0
aF78.6
aF0.0
aF12.1
aF25.6
aF-7.02
aF0.0
aF0.0
aF4.1
aF-9.9
aF-79.4
aF-34.2
aF-12.0
aF-22.05
aF61.3
aF29.3
aF0.0
aF29.2
aF9.4
aF-8.0
aF30.4
aF32.8
aF0.0
aF0.0
aF4.0
aF0.0
aF55.4
aF97.7
aF0.0
aF0.0
aF-29.2
aF-12.4
aF-4.1
aF-21.3
aF15.9
aF0.0
aF1.0
aF3.8
aF78.8
aF22.5
aF11.8
aF36.5
aF-4.2
aF40.1
aF53.25
aF0.0
aF-23.24
aF0.0
aF-31.9
aF61.1
aF3.33
aF0.0
aF22.1
aF21.87
aF42.3
aF44.3
aF34.56
aF-69.7
aF30.4
aF19.43
aF48.1
aF19.8
aF0.0
aF-18.4
aF29.5
aF51.3
aF26.1
aF9.53
aF3.7
aF-19.9
aF14.0
aF21.3
aF36.6
aF0.0
aF-22.7
aF19.5
aF48.9
aF38.73
aF0.0
aF8.1
aF27.6
aF2.4
aF32.5
aF-9.6
aF18.6
aF0.0
aF19.4
aF7.1
aF16.9
aF8.94
aF-3.53
aF22.6
aF-6.5
aF26.4
aF-4.51
aF41.7
aF47.3
aF20.2
aF7.7
aF-3.9
aF0.0
aF-37.38
aF0.0
aF12.7
aF0.0
aF-28.3
aF3.8
aF0.0
aF1.7
aF-30.36
aF23.62
aF0.0
aF306.0
aF0.0
aF21.73
aF0.0
aF-25.6
aF28.6
aF0.0
aF-11.38
aF0.0
aF-36.7
aF17.2
aF15.5
aF-42.4
aF18.2
aF-15.69
aF-3.0
aF0.0
asS'Vmag'
p610
(lp611
F4.74
aF5.024
aF5.22
aF6.67
aFnan
aF5.522
aF6.441
aF4.833
aF5.04
aF4.599
aF5.46
aF5.95
aF4.74
aF5.88
aF4.97
aF5.364
aF3.95
aF5.656
aF4.21
aF9.66
aF9.74
aF9.367
aF9.139
aF10.49
aF6.86
aF9.63
aF11.73
aF9.951
aF6.578
aF11.98
aF11.95
aF9.813
aF10.22
aF9.407
aF8.672
aF10.366
aF11.811
aF12.018
aF10.61
aF9.655
aF5.723
aF6.17
aF10.042
aF10.42
aF10.38
aF6.438
aF8.42
aF7.32
aF8.21
aF7.45
aF8.06
aF8.71
aF7.89
aF4.886
aF7.851
aF9.39
aF7.921
aF5.797
aF7.36
aF7.58
aF5.52
aF7.35
aF6.292
aF8.02
aF7.003
aF7.72
aF8.76
aF8.76
aF8.08
aF4.657
aF7.61
aF9.057
aF8.71
aF6.69
aF7.3
aF7.55
aF7.51
aF7.89
aF7.25
aF7.17
aF8.06
aF6.42
aF4.695
aF4.49
aF7.52
aF5.476
aF9.03
aF8.32
aF7.85
aF7.44
aF8.787
aF7.446
aF1.996
aF8.79
aF8.04
aF7.8
aF7.56
aF8.45
aF8.4
aF6.285
aF6.854
aF6.46
aF5.649
aF7.88
aF5.519
aF8.7
aF8.38
aF7.6
aF5.977
aF7.25
aF5.7
aF7.69
aF4.796
aF7.45
aF7.34
aF4.13
aF9.16
aF8.1
aF6.565
aF6.46
aF8.3
aF5.376
aF7.69
aF6.89
aF7.89
aF8.35
aF7.22
aF7.029
aF9.16
aF8.35
aF7.38
aF6.584
aF6.74
aF8.2
aF7.24
aF7.27
aF8.08
aF6.67
aF8.42
aF7.86
aF7.464
aF7.24
aF5.15
aF6.78
aF7.28
aF9.12
aF7.979
aF3.309
aF5.78
aF8.103
aF9.83
aF6.99
aF9.34
aF5.95
aF6.92
aF7.95
aF9.178
aF5.911
aF8.18
aF7.73
aF8.29
aF8.65
aF6.057
aF8.0
aF8.0
aF5.25
aF7.177
aF6.74
aF7.96
aF6.254
aF6.608
aF7.78
aF7.55
aF8.38
aF7.86
aF7.86
aF6.683
aF7.21
aF7.83
aF7.81
aF8.23
aF4.722
aF6.074
aF5.71
aF7.78
aF8.73
aF7.767
aF5.723
aF6.449
aF6.88
aF7.49
aF6.02
aF6.385
aF6.813
aF5.08
aF8.37
aF6.487
aF8.07
aF6.41
aF8.99
aF8.02
aF8.48
aF8.54
aF8.35
aF8.44
aF7.38
aF8.79
aF4.255
aF7.47
aF9.93
aF6.63
aF5.939
aF7.76
aF7.6
aF6.8
aF8.13
aF6.63
aF8.95
aF6.03
aF6.064
aF8.1
aF7.94
aF6.18
aF7.779
aF8.628
aF8.91
aF8.01
aF3.73
aF7.76
aF7.1
aF7.81
aF7.12
aF7.69
aF8.22
aF8.766
aF7.11
aF8.55
aF8.97
aF7.24
aF8.27
aF8.17
aF7.52
aF7.78
aF9.38
aF4.442
aF8.24
aF9.42
aF7.81
aF7.68
aF3.53
aF8.44
aF8.94
aF8.37
aF5.77
aF7.911
aF7.13
aF7.484
aF6.42
aF9.33
aF7.96
aF8.04
aF5.095
aF7.33
aF5.88
aF7.68
aF8.69
aF6.696
aF5.938
aF8.27
aF5.966
aF5.67
aF8.075
aF7.147
aF6.734
aF8.62
aF12.33
aF7.88
aF8.687
aF7.79
aF6.552
aF7.82
aF8.95
aF8.02
aF7.7
aF6.374
aF7.88
aF8.06
aF8.127
aF7.84
aF7.63
aF5.258
aF8.03
aF8.1
aF7.2
aF6.84
aF8.17
aF6.301
aF8.05
aF5.999
aF8.11
aF5.45
aF4.39
aF1.15
aF9.36
aF8.1
aF7.72
aF7.96
aF8.26
aF8.45
aF8.19
aF5.95
aF8.67
aF7.18
aF3.362
aF8.03
aF7.47
aF8.06
aF8.87
aF9.0
aF8.24
aF7.61
aF7.48
aF6.36
aF8.03
aF8.13
aF8.59
aF7.185
aF8.02
aF7.73
aF5.413
aF7.63
aF6.53
aF8.24
aF7.69
aF8.55
aF7.651
aF7.11
aF8.7
aF7.93
aF7.41
aF6.31
aF7.55
aF8.06
aF7.03
aF5.741
aF6.92
aF7.3
aF8.33
aF7.486
aF8.35
aF7.95
aF8.2
aF8.254
aF7.407
aF8.08
aF6.503
aF8.03
aF4.1
aF7.99
aF9.06
aF7.53
aF7.64
aF9.85
aF10.237
aF9.982
aF8.5
aF4.398
aF10.21
aF11.88
aF8.96
aF10.376
aF3.31
aF11.372
aF2.12
aF7.09
aF5.4
aF3.22
aF10.04
aF7.4
aF10.33
aF12.15
asS'Imag'
p612
(lp613
Fnan
aFnan
aF4.1
aF5.6
aFnan
aFnan
aFnan
aFnan
aF4.4
aFnan
aF4.7
aF5.0
aFnan
aF4.8
aF4.2
aFnan
aFnan
aFnan
aFnan
aF8.6
aFnan
aFnan
aFnan
aFnan
aFnan
aFnan
aF10.87
aF7.702
aFnan
aFnan
aFnan
aF7.664
aF8.82
aF7.006
aF6.479
aF7.877
aF9.32
aF9.334
aF8.911
aF7.602
aF8.74
aFnan
aF7.988
aFnan
aFnan
aFnan
aFnan
aFnan
aFnan
aFnan
aF7.2
aFnan
aFnan
aFnan
aFnan
aFnan
aF6.913
aF4.7
aF6.7
aFnan
aFnan
aFnan
aFnan
aFnan
aFnan
aFnan
aF7.9
aF8.0
aFnan
aFnan
aFnan
aF7.418
aFnan
aFnan
aF6.8
aF6.627
aFnan
aFnan
aFnan
aFnan
aFnan
aFnan
aFnan
aF4.0
aFnan
aFnan
aFnan
aFnan
aF8.31
aF6.6
aFnan
aF6.425
aF0.8
aFnan
aFnan
aFnan
aFnan
aF7.8
aFnan
aF8.68
aF8.89
aFnan
aFnan
aF6.9
aFnan
aF8.37
aFnan
aF6.9
aFnan
aFnan
aFnan
aFnan
aF3.7
aFnan
aFnan
aFnan
aFnan
aFnan
aFnan
aFnan
aFnan
aFnan
aFnan
aFnan
aFnan
aFnan
aF8.7
aFnan
aFnan
aFnan
aFnan
aFnan
aF6.0
aFnan
aFnan
aF6.7
aF7.2
aFnan
aF7.3
aF8.58
aFnan
aFnan
aFnan
aFnan
aFnan
aFnan
aFnan
aFnan
aFnan
aFnan
aFnan
aF6.1
aF9.37
aF5.0
aFnan
aFnan
aF8.87
aFnan
aFnan
aFnan
aFnan
aFnan
aFnan
aF8.86
aFnan
aF4.7
aFnan
aF6.0
aFnan
aFnan
aFnan
aF8.87
aF8.62
aFnan
aFnan
aFnan
aFnan
aFnan
aF7.1
aFnan
aFnan
aFnan
aFnan
aF4.9
aFnan
aFnan
aF6.771
aF8.74
aFnan
aF6.2
aFnan
aFnan
aFnan
aF6.3
aFnan
aF8.63
aFnan
aFnan
aFnan
aFnan
aFnan
aFnan
aFnan
aF8.76
aF8.43
aFnan
aFnan
aFnan
aFnan
aFnan
aFnan
aFnan
aFnan
aF8.66
aFnan
aF8.46
aF8.66
aFnan
aFnan
aFnan
aFnan
aF8.61
aFnan
aFnan
aF8.73
aFnan
aFnan
aFnan
aF8.59
aF6.4
aFnan
aF6.4
aFnan
aFnan
aFnan
aFnan
aFnan
aFnan
aFnan
aFnan
aFnan
aF6.8
aF7.74
aF9.19
aFnan
aFnan
aFnan
aFnan
aFnan
aFnan
aFnan
aFnan
aFnan
aFnan
aFnan
aFnan
aF8.88
aFnan
aFnan
aFnan
aFnan
aF4.6
aFnan
aF4.9
aF6.9
aF7.7
aF8.35
aF5.1
aFnan
aFnan
aFnan
aFnan
aF6.119
aF6.1
aFnan
aFnan
aFnan
aF7.9
aFnan
aFnan
aFnan
aFnan
aFnan
aFnan
aF8.94
aFnan
aFnan
aF7.2
aFnan
aFnan
aFnan
aFnan
aFnan
aFnan
aFnan
aF8.65
aFnan
aFnan
aFnan
aFnan
aFnan
aFnan
aF0.2
aFnan
aFnan
aFnan
aFnan
aFnan
aFnan
aFnan
aFnan
aFnan
aFnan
aF2.4
aFnan
aFnan
aFnan
aFnan
aFnan
aFnan
aF7.0
aFnan
aFnan
aFnan
aFnan
aFnan
aFnan
aF7.2
aF7.0
aFnan
aFnan
aFnan
aFnan
aFnan
aFnan
aF6.319
aF6.5
aFnan
aFnan
aFnan
aF5.8
aFnan
aF7.1
aF6.4
aF5.2
aF6.189
aFnan
aFnan
aF8.82
aF7.7
aFnan
aFnan
aFnan
aFnan
aFnan
aF8.95
aFnan
aF3.5
aF8.26
aFnan
aF6.508
aFnan
aFnan
aF8.544
aF9.37
aFnan
aFnan
aFnan
aF9.18
aF7.8
aF8.637
aFnan
aF9.37
aF0.9
aFnan
aFnan
aF2.1
aFnan
aFnan
aFnan
aFnan
asS'Kmag'
p614
(lp615
F2.282
aF1.939
aF2.331
aF4.714
aFnan
aF3.366
aF4.285
aF2.085
aF3.75
aFnan
aF3.99
aF4.015
aF2.956
aF3.701
aF3.24
aF3.207
aF1.564
aF3.266
aFnan
aF7.336
aF6.42
aF6.169
aF5.904
aF7.962
aF4.62
aF6.914
aF9.806
aF5.607
aF4.859
aF7.028
aF7.47
aF5.623
aF6.036
aF4.855
aF4.501
aF5.594
aF7.135
aF6.942
aF5.837
aF5.624
aF3.501
aF4.12
aF6.077
aF8.975
aF8.544
aF4.129
aFnan
aF5.868
aFnan
aFnan
aF6.151
aF6.259
aF5.402
aF3.489
aF5.663
aF7.426
aF5.614
aF3.27
aF5.93
aF5.862
aFnan
aFnan
aFnan
aFnan
aFnan
aF5.392
aF7.06
aF7.216
aFnan
aFnan
aFnan
aF5.637
aFnan
aFnan
aF5.81
aFnan
aFnan
aF5.534
aFnan
aFnan
aFnan
aF4.49
aFnan
aF3.36
aFnan
aF2.261
aF6.447
aFnan
aF6.215
aF5.86
aF7.06
aF5.14
aF-0.783
aF7.167
aFnan
aF5.437
aFnan
aF6.87
aFnan
aF4.836
aF5.177
aF4.882
aF4.159
aFnan
aF2.934
aF6.763
aF6.25
aF6.139
aF3.406
aFnan
aFnan
aFnan
aF2.423
aF5.11
aF5.892
aF1.349
aF7.488
aF6.706
aF4.122
aF4.897
aF6.571
aF3.93
aF6.397
aF4.682
aFnan
aF6.12
aF5.61
aFnan
aF7.634
aF6.173
aF6.006
aF4.758
aF5.003
aF6.612
aFnan
aF5.808
aF6.269
aF5.17
aF6.004
aF6.082
aF5.156
aF5.535
aFnan
aFnan
aF5.853
aFnan
aF6.271
aF1.225
aFnan
aF6.586
aF7.169
aF5.11
aF7.246
aF3.55
aFnan
aFnan
aF6.018
aFnan
aFnan
aF4.807
aF6.604
aF6.831
aF3.814
aF6.288
aF5.829
aF3.65
aF4.809
aF5.21
aF6.311
aFnan
aF4.312
aF5.543
aF5.251
aF6.094
aF6.294
aFnan
aFnan
aF5.876
aF6.34
aF5.554
aFnan
aF2.171
aF4.511
aF4.076
aFnan
aF7.319
aFnan
aF3.501
aF4.366
aF5.26
aFnan
aF5.08
aF5.072
aF5.488
aF3.75
aF6.647
aF4.286
aFnan
aFnan
aFnan
aF6.459
aF6.357
aF7.299
aF5.952
aF6.553
aFnan
aF7.207
aF2.636
aFnan
aF7.543
aF4.89
aF3.984
aFnan
aF5.496
aFnan
aF5.775
aF5.098
aF6.784
aFnan
aFnan
aFnan
aF6.193
aFnan
aF6.352
aF6.223
aF6.421
aF6.53
aF1.776
aF6.326
aF5.651
aFnan
aF5.51
aFnan
aF6.808
aF6.607
aFnan
aF7.087
aFnan
aFnan
aFnan
aF4.319
aF5.97
aF6.489
aF7.308
aFnan
aF6.646
aFnan
aFnan
aF6.006
aF1.31
aF5.775
aF7.271
aFnan
aFnan
aF5.657
aF5.792
aF6.049
aF3.911
aFnan
aF5.792
aF6.646
aF3.911
aFnan
aF3.999
aF5.95
aF6.82
aF5.267
aF4.21
aF6.279
aF4.405
aFnan
aF6.094
aF4.793
aF5.45
aFnan
aFnan
aF6.289
aF7.05
aFnan
aF4.945
aF5.595
aF7.203
aF6.7
aF6.115
aF4.871
aFnan
aF6.316
aF6.263
aF6.0
aF6.005
aFnan
aF6.449
aFnan
aFnan
aFnan
aF6.328
aFnan
aF5.699
aF3.826
aF5.621
aF2.922
aF3.355
aF-0.936
aF6.998
aF6.316
aFnan
aFnan
aFnan
aF6.876
aFnan
aF4.165
aF7.191
aFnan
aF1.34
aF6.229
aFnan
aFnan
aF7.062
aFnan
aF5.962
aF6.21
aF6.084
aFnan
aF6.662
aFnan
aF6.761
aF5.159
aF6.53
aF6.159
aFnan
aF5.452
aFnan
aF6.444
aF6.354
aF6.491
aF4.717
aF5.78
aF7.299
aF6.463
aF6.224
aF5.17
aF5.314
aF6.2
aF5.56
aF4.45
aF5.245
aFnan
aFnan
aF6.065
aF6.85
aF5.626
aF6.798
aF6.05
aF3.911
aF6.554
aF4.995
aF5.813
aF2.86
aF6.419
aFnan
aF5.26
aF5.335
aF8.457
aF6.736
aF8.512
aFnan
aF1.681
aFnan
aF6.822
aF6.286
aF6.79
aFnan
aF6.589
aF-0.81
aF5.822
aF4.14
aF1.04
aF7.151
aFnan
aF9.142
aF10.173
asS'pmdec'
p616
(lp617
F89.44
aF9.65
aF-84.22
aF-297.54
aFnan
aF-34.43
aF-34.92
aF-27.24
aF54.64
aF26.4
aF60.34
aF-234.05
aF-1063.69
aF-338.67
aF-575.73
aF-32.08
aF-69.97
aF-42.91
aF-17.16
aF1.78
aF-31.4
aF-2.9
aF-6.5
aF-9.5
aF7.48
aF-228.96
aF-4.0
aF-1116.2
aF-56.74
aF794.0
aF-92.0
aF-851.92
aF-214.4
aF-880.83
aF-817.63
aF-19.27
aF583.01
aF-309.39
aF-97.78
aF-506.26
aF-180.96
aF653.21
aF-1852.91
aF-27.6
aF-124.8
aF-0.33
aF35.42
aF6.51
aF347.9
aF-70.76
aF-112.09
aF6.21
aF-18.46
aF403.67
aF-17.14
aF6.61
aF-423.67
aF-91.65
aF-279.5
aF-41.86
aF-106.52
aF-52.29
aF-105.35
aF-47.37
aF-61.27
aF-33.29
aF-89.47
aF-46.44
aF-5.43
aF-24.73
aF112.35
aF-795.33
aF-324.7
aF-308.32
aF-2.18
aF10.57
aF-98.85
aF-52.49
aF-72.19
aF-125.01
aF-77.84
aF-242.39
aF72.94
aF53.49
aF-84.35
aF-4.05
aF-67.06
aF-67.65
aF39.54
aF-174.69
aF-147.93
aF-249.98
aF-148.08
aF-58.57
aF-141.57
aF-35.08
aF5.32
aF-279.96
aF-70.12
aF-10.66
aF-164.82
aF-74.85
aF-275.62
aF-181.92
aF-42.44
aF43.31
aF30.59
aF-183.19
aF1.64
aF22.97
aF-39.19
aF-31.77
aF-348.44
aF-20.82
aF-102.54
aF-60.61
aF-118.21
aF13.61
aF36.89
aF-143.83
aF-315.28
aF5.26
aF28.1
aF2.81
aF-87.31
aF-18.15
aF-445.11
aF-86.4
aF-94.06
aF-15.79
aF-142.15
aF-268.69
aF853.63
aF-124.69
aF-55.92
aF-215.97
aF161.21
aF-209.35
aF217.36
aF-138.5
aF-59.04
aF-167.0
aF-190.6
aF-438.79
aF-40.37
aF-26.84
aF120.05
aF-116.69
aF-259.35
aF-20.98
aF-39.1
aF-602.03
aF-78.62
aF247.35
aF-222.83
aF-68.93
aF3.17
aF16.11
aF-18.32
aF-13.6
aF-13.4
aF-111.01
aF58.23
aF-192.74
aF-89.23
aF-145.46
aF-51.75
aF196.24
aF-90.1
aF-101.67
aF19.71
aF-20.5
aF-30.58
aF235.37
aF-414.99
aF-32.97
aF-81.18
aF-103.39
aF-123.91
aF-23.37
aF-91.56
aF-81.2
aF-673.62
aF-524.7
aF-207.57
aF44.57
aF261.37
aF-180.96
aF-52.15
aF-58.39
aF-65.82
aF-158.45
aF83.87
aF-220.96
aF-69.01
aF-8.88
aF50.47
aF-119.81
aF-58.11
aF15.22
aF-271.51
aF-125.28
aF-83.69
aF2.34
aF-67.69
aF-65.92
aF-143.15
aF726.58
aF-118.53
aF94.07
aF-449.74
aF-18.02
aF-92.05
aF-103.17
aF-194.44
aF-290.81
aF-48.11
aF-60.49
aF-81.76
aF73.04
aF-178.11
aF94.39
aF-15.8
aF-170.13
aF-97.02
aF-7.4
aF4.14
aF19.49
aF-179.33
aF-222.87
aF-5.39
aF-117.13
aF-111.93
aF27.37
aF-91.99
aF-92.82
aF143.03
aF16.46
aF21.12
aF7.9
aF-5.13
aF-252.18
aF80.69
aF-223.46
aF-167.58
aF-93.32
aF271.77
aF-57.66
aF-144.5
aF-37.84
aF-8.82
aF-96.93
aF-11.45
aF-249.44
aF-18.93
aF-41.27
aF130.25
aF-62.81
aF-93.79
aF35.37
aF-46.71
aF161.95
aF-147.17
aF-370.02
aF-419.77
aF-246.44
aF-107.04
aF-141.84
aF-75.32
aF-228.35
aF1050.38
aF1238.39
aF-60.46
aF-152.79
aF66.5
aFnan
aF-115.05
aF-124.29
aF150.27
aF-742.32
aF6.69
aF13.66
aF-51.92
aF-17.95
aF-121.77
aF-53.46
aF-13.2
aF-62.58
aF-97.17
aF-263.01
aF64.6
aF30.53
aF-122.7
aF68.96
aF-95.54
aF-160.07
aF80.29
aF-49.66
aF-71.87
aF-41.89
aF-74.8
aF46.84
aF-45.8
aF-40.64
aF-279.19
aF-527.67
aF145.51
aF-207.18
aF19.77
aF31.26
aF-987.59
aF-49.0
aF225.18
aF-107.45
aF-125.02
aF-97.72
aF66.81
aF123.08
aF162.23
aF-94.19
aF-200.9
aF-138.95
aF-227.93
aF-28.44
aF119.94
aF-270.8
aF-33.28
aF-154.95
aF36.12
aF-128.77
aF-34.78
aF-175.01
aF-120.31
aF-70.1
aF-60.59
aF-471.92
aF-158.06
aF16.83
aF47.74
aF-65.74
aF-84.64
aF-60.51
aF-264.57
aF-39.91
aF-138.31
aF99.61
aF-222.69
aF-150.99
aF-53.86
aF-53.99
aF-47.27
aF-38.41
aF-17.6
aF-2.01
aF-7.55
aF-131.42
aF-16.91
aF-381.8
aF-177.51
aF-159.26
aF188.97
aF-86.89
aF-187.74
aF140.88
aF10.41
aF-53.44
aF-48.92
aF-106.84
aF-89.22
aF-380.8
aF-203.52
aF17.08
aF-208.36
aF-154.0
aF-12.79
aF218.74
aF126.59
aF-5.4
aF3.68
aF-17.3
aF-16.4
asS'Rmag'
p618
(lp619
Fnan
aFnan
aF4.6
aF6.1
aFnan
aFnan
aF6.41
aFnan
aF4.7
aFnan
aF5.0
aF5.4
aFnan
aF5.3
aF4.5
aF10.0
aFnan
aFnan
aFnan
aF9.1
aFnan
aFnan
aF8.56
aFnan
aFnan
aFnan
aF11.36
aF8.931
aF6.6
aFnan
aFnan
aF8.821
aF10.05
aF8.337
aF7.665
aF9.279
aF10.734
aF10.854
aF9.461
aF8.685
aF5.98
aF6.1
aF9.092
aF10.4
aF10.24
aF6.37
aFnan
aFnan
aFnan
aFnan
aF7.6
aFnan
aFnan
aFnan
aF8.21
aFnan
aF7.369
aF5.2
aF7.0
aFnan
aFnan
aFnan
aFnan
aFnan
aFnan
aFnan
aF8.3
aF8.43
aFnan
aFnan
aFnan
aF8.202
aFnan
aFnan
aF7.0
aF7.053
aFnan
aFnan
aFnan
aFnan
aFnan
aFnan
aFnan
aF4.2
aFnan
aFnan
aFnan
aFnan
aF7.56
aF7.0
aFnan
aF6.895
aF1.3
aFnan
aFnan
aFnan
aFnan
aF8.1
aFnan
aF6.16
aF6.69
aF6.43
aFnan
aF7.3
aFnan
aF8.42
aF8.06
aF7.2
aFnan
aFnan
aFnan
aFnan
aF4.2
aFnan
aF7.3
aFnan
aFnan
aFnan
aF6.91
aFnan
aFnan
aF5.4
aFnan
aFnan
aFnan
aFnan
aF6.8
aFnan
aFnan
aFnan
aFnan
aFnan
aF6.3
aFnan
aFnan
aF7.0
aF7.6
aFnan
aF7.8
aF7.6
aFnan
aFnan
aFnan
aFnan
aFnan
aFnan
aF7.8
aFnan
aFnan
aF7.85
aFnan
aF6.5
aF8.96
aF5.4
aFnan
aFnan
aF8.483
aFnan
aFnan
aFnan
aFnan
aFnan
aFnan
aF7.89
aFnan
aF4.9
aFnan
aF6.3
aFnan
aFnan
aF6.41
aFnan
aFnan
aFnan
aFnan
aFnan
aFnan
aFnan
aF7.4
aFnan
aFnan
aFnan
aFnan
aF5.2
aFnan
aFnan
aF7.231
aF5.98
aFnan
aF6.5
aFnan
aFnan
aF6.32
aF6.61
aFnan
aF8.02
aFnan
aFnan
aFnan
aFnan
aF7.76
aFnan
aFnan
aFnan
aF8.17
aFnan
aFnan
aFnan
aFnan
aFnan
aFnan
aFnan
aFnan
aFnan
aFnan
aF7.83
aF6.86
aFnan
aFnan
aFnan
aFnan
aF8.0
aFnan
aF7.6
aFnan
aFnan
aFnan
aFnan
aF7.65
aF6.97
aFnan
aF6.7
aFnan
aFnan
aF8.45
aFnan
aFnan
aFnan
aFnan
aFnan
aF7.53
aF7.1
aF7.77
aF9.1
aFnan
aF8.38
aFnan
aFnan
aF7.7
aFnan
aFnan
aFnan
aFnan
aFnan
aFnan
aF7.03
aF7.24
aFnan
aFnan
aFnan
aFnan
aF4.8
aFnan
aF5.3
aF7.2
aF8.1
aFnan
aF5.4
aFnan
aFnan
aFnan
aFnan
aF6.597
aF6.4
aFnan
aFnan
aFnan
aF8.2
aFnan
aFnan
aFnan
aFnan
aFnan
aFnan
aF6.24
aFnan
aFnan
aF7.6
aFnan
aFnan
aFnan
aFnan
aFnan
aFnan
aFnan
aF7.94
aFnan
aFnan
aFnan
aFnan
aFnan
aFnan
aF0.6
aFnan
aFnan
aFnan
aFnan
aFnan
aFnan
aFnan
aFnan
aFnan
aFnan
aF2.8
aFnan
aFnan
aFnan
aFnan
aFnan
aFnan
aF7.2
aFnan
aFnan
aF10.6
aFnan
aFnan
aFnan
aF7.6
aF7.3
aFnan
aFnan
aFnan
aFnan
aFnan
aFnan
aF6.934
aF6.8
aFnan
aF7.71
aFnan
aF6.1
aFnan
aF7.5
aF6.7
aF5.4
aF6.534
aFnan
aFnan
aF7.61
aF8.0
aFnan
aFnan
aFnan
aF6.97
aFnan
aF6.59
aFnan
aF3.8
aF7.75
aFnan
aF6.97
aF11.7
aFnan
aF9.36
aF9.818
aFnan
aFnan
aFnan
aF10.74
aF8.3
aF9.492
aFnan
aF10.289
aF1.5
aFnan
aF5.4
aF2.6
aFnan
aFnan
aFnan
aFnan
asS'Name'
p620
(lp621
V11Com
p622
aV11UMi
p623
aV14And
p624
aV14Her
p625
aV16CygB
p626
aV18Del
p627
aV24Sex
p628
aV42Dra
p629
aV47Uma
p630
aV4Uma
p631
aV51Peg
p632
aV55Cnc
p633
aV61Vir
p634
aV6Lyn
p635
aV70Vir
p636
aV75Cet
p637
aV7CMa
p638
aV81Cet
p639
aV91Aqr
p640
aVBD+144559
p641
aVBD+202457
p642
aVBD+20274
p643
aVBD+48738
p644
aVBD-08282
p645
aVBD-10316
p646
aVBD-1763
p647
aVCoRoT-7
p648
aVGJ176
p649
aVGJ3021
p650
aVGJ317
p651
aVGJ3634
p652
aVGJ433
p653
aVGJ667C
p654
aVGJ674
p655
aVGJ832
p656
aVGj849
p657
aVGl163
p658
aVGl179
p659
aVGl581
p660
aVGl649
p661
aVGl785
p662
aVGl86
p663
aVGliese87
p664
aVHAT-P-13
p665
aVHAT-P-17
p666
aVHD100655
p667
aVHD100777
p668
aVHD10180
p669
aVHD101930
p670
aVHD102117
p671
aVHD102195
p672
aVHD102272
p673
aVHD102329
p674
aVHD102365
p675
aVHD102956
p676
aVHD103197
p677
aVHD104067
p678
aVHD104985
p679
aVHD106252
p680
aVHD106270
p681
aVHD10647
p682
aVHD106515
p683
aVHD10697
p684
aVHD107148
p685
aVHD108147
p686
aVHD108863
p687
aVHD108874
p688
aVHD109246
p689
aVHD109749
p690
aVHD110014
p691
aVHD111232
p692
aVHD113538
p693
aVHD114386
p694
aVHD114729
p695
aVHD114762
p696
aVHD114783
p697
aVHD11506
p698
aVHD116029
p699
aVHD117207
p700
aVHD117618
p701
aVHD118203
p702
aVHD11964
p703
aVHD11977
p704
aVHD120136
p705
aVHD121504
p706
aVHD122430
p707
aVHD125595
p708
aVHD125612
p709
aVHD126525
p710
aVHD12661
p711
aVHD126614
p712
aVHD128311
p713
aVHD12929
p714
aVHD129445
p715
aVHD130322
p716
aVHD131496
p717
aVHD13189
p718
aVHD132406
p719
aVHD132563
p720
aVHD134060
p721
aVHD134606
p722
aVHD134987
p723
aVHD136352
p724
aVHD136418
p725
aVHD136512
p726
aVHD137388
p727
aVHD13808
p728
aVHD13931
p729
aVHD139357
p730
aVHD141937
p731
aVHD142
p732
aVHD142022
p733
aVHD142091
p734
aVHD142245
p735
aVHD142415
p736
aVHD143107
p737
aVHD143361
p738
aVHD145377
p739
aVHD145457
p740
aVHD1461
p741
aVHD147018
p742
aVHD147513
p743
aVHD148156
p744
aVHD148427
p745
aVHD149143
p746
aVHD1502
p747
aVHD150433
p748
aVHD150706
p749
aVHD152079
p750
aVHD152581
p751
aVHD153950
p752
aVHD154088
p753
aVHD154345
p754
aVHD154672
p755
aVHD154857
p756
aVHD155358
p757
aVHD156279
p758
aVHD156411
p759
aVHD156668
p760
aVHD157172
p761
aVHD158038
p762
aVHD159868
p763
aVHD160691
p764
aVHD16141
p765
aVHD16175
p766
aVHD162020
p767
aVHD163607
p768
aVHD163917
p769
aVHD16417
p770
aVHD164509
p771
aVHD164604
p772
aVHD164922
p773
aVHD166724
p774
aVHD167042
p775
aVHD168443
p776
aVHD168746
p777
aVHD1690
p778
aVHD169830
p779
aVHD170469
p780
aVHD17092
p781
aVHD171028
p782
aVHD171238
p783
aVHD173416
p784
aVHD175167
p785
aVHD175541
p786
aVHD176051
p787
aVHD177830
p788
aVHD178911
p789
aVHD179079
p790
aVHD179949
p791
aVHD180314
p792
aVHD180902
p793
aVHD181342
p794
aVHD181433
p795
aVHD181720
p796
aVHD183263
p797
aVHD185269
p798
aVHD187085
p799
aVHD187123
p800
aVHD18742
p801
aVHD188015
p802
aVHD188310
p803
aVHD189567
p804
aVHD190360
p805
aVHD190647
p806
aVHD190984
p807
aVHD192263
p808
aVHD192310
p809
aVHD192699
p810
aVHD195019
p811
aVHD196050
p812
aVHD196067
p813
aVHD196885
p814
aVHD197037
p815
aVHD19994
p816
aVHD20003
p817
aVHD200964
p818
aVHD202206
p819
aVHD20367
p820
aVHD2039
p821
aVHD204313
p822
aVHD204941
p823
aVHD205739
p824
aVHD206610
p825
aVHD20781
p826
aVHD20782
p827
aVHD207832
p828
aVHD20794
p829
aVHD208487
p830
aVHD20868
p831
aVHD210277
p832
aVHD210702
p833
aVHD212301
p834
aVHD212771
p835
aVHD213240
p836
aVHD215152
p837
aVHD215456
p838
aVHD215497
p839
aVHD216435
p840
aVHD216437
p841
aVHD216770
p842
aVHD21693
p843
aVHD217107
p844
aVHD217786
p845
aVHD218566
p846
aVHD219415
p847
aVHD219828
p848
aVHD22049
p849
aVHD220689
p850
aVHD220773
p851
aVHD221287
p852
aVHD222155
p853
aVHD222582
p854
aVHD224693
p855
aVHD22781
p856
aVHD23079
p857
aVHD23127
p858
aVHD231701
p859
aVHD23596
p860
aVHD240210
p861
aVHD240237
p862
aVHD24040
p863
aVHD25171
p864
aVHD2638
p865
aVHD27442
p866
aVHD27631
p867
aVHD27894
p868
aVHD28185
p869
aVHD28254
p870
aVHD28305
p871
aVHD28678
p872
aVHD290327
p873
aVHD30177
p874
aVHD30562
p875
aVHD30856
p876
aVHD31253
p877
aVHD31527
p878
aVHD32518
p879
aVHD330075
p880
aVHD33142
p881
aVHD33283
p882
aVHD33564
p883
aVHD34445
p884
aVHD3651
p885
aVHD37124
p886
aVHD37605
p887
aVHD38283
p888
aVHD38529
p889
aVHD38801
p890
aVHD38858
p891
aVHD39091
p892
aVHD39194
p893
aVHD40307
p894
aVHD40979
p895
aVHD41004A
p896
aVHD41004B
p897
aVHD4113
p898
aVHD4203
p899
aVHD4208
p900
aVHD4308
p901
aVHD4313
p902
aVHD43197
p903
aVHD43691
p904
aVHD44219
p905
aVHD45184
p906
aVHD45350
p907
aVHD45364
p908
aVHD45652
p909
aVHD46375
p910
aVHD47186
p911
aVHD47536
p912
aVHD48265
p913
aVHD49674
p914
aVHD50499
p915
aVHD50554
p916
aVHD51608
p917
aVHD52265
p918
aVHD5319
p919
aVHD5608
p920
aVHD5891
p921
aVHD59686
p922
aVHD60532
p923
aVHD62509
p924
aVHD63454
p925
aVHD63765
p926
aVHD6434
p927
aVHD65216
p928
aVHD66428
p929
aVHD6718
p930
aVHD68988
p931
aVHD69830
p932
aVHD70573
p933
aVHD70642
p934
aVHD71369
p935
aVHD7199
p936
aVHD72659
p937
aVHD73256
p938
aVHD73267
p939
aVHD73526
p940
aVHD73534
p941
aVHD74156
p942
aVHD7449
p943
aVHD75289
p944
aVHD75898
p945
aVHD76700
p946
aVHD77338
p947
aVHD7924
p948
aVHD79498
p949
aVHD81040
p950
aVHD81688
p951
aVHD82886
p952
aVHD82943
p953
aVHD83443
p954
aVHD8535
p955
aVHD85390
p956
aVHD85512
p957
aVHD8574
p958
aVHD86081
p959
aVHD86226
p960
aVHD86264
p961
aVHD8673
p962
aVHD87883
p963
aVHD88133
p964
aVHD89307
p965
aVHD89744
p966
aVHD90156
p967
aVHD92788
p968
aVHD93083
p969
aVHD93385
p970
aVHD9446
p971
aVHD95089
p972
aVHD9578
p973
aVHD96063
p974
aVHD96127
p975
aVHD96167
p976
aVHD96700
p977
aVHD98219
p978
aVHD9826
p979
aVHD98649
p980
aVHD99109
p981
aVHD99492
p982
aVHD99706
p983
aVHIP11952
p984
aVHIP12961
p985
aVHIP13044
p986
aVHIP14810
p987
aVHIP34693
p988
aVHIP5158
p989
aVHIP57050
p990
aVHIP57274
p991
aVHIP70849
p992
aVHIP75458
p993
aVHIP79431
p994
aVHR4057
p995
aVHR764
p996
aVHR810
p997
aVHR8974
p998
aVNGC24233
p999
aVNGC4349
p1000
aVPr0201
p1001
aVPr0211
p1002
asS'Jmag'
p1003
(lp1004
F2.943
aF2.876
aF3.019
aF5.158
aFnan
aF4.032
aF5.292
aF2.949
aF3.96
aFnan
aF4.66
aF4.768
aF3.334
aF4.272
aF3.8
aF3.931
aF2.173
aF3.94
aFnan
aF7.882
aF7.299
aF7.003
aF6.704
aF8.6
aF5.24
aF7.574
aF10.301
aF6.462
aF5.366
aF7.934
aF8.361
aF6.471
aF6.848
aF5.711
aF5.349
aF6.51
aF7.948
aF7.814
aF6.706
aF6.448
aF4.112
aF4.79
aF6.83
aF9.328
aF9.017
aF5.039
aFnan
aF6.246
aFnan
aFnan
aF6.629
aF6.895
aF6.049
aF3.931
aF6.214
aF7.916
aF6.212
aF4.11
aF6.3
aF6.249
aFnan
aFnan
aFnan
aFnan
aFnan
aF6.022
aF7.48
aF7.57
aFnan
aFnan
aFnan
aF6.438
aFnan
aFnan
aF6.14
aFnan
aFnan
aF6.144
aFnan
aFnan
aFnan
aFnan
aFnan
aF3.62
aFnan
aF3.08
aF7.097
aFnan
aF6.634
aF6.18
aF7.47
aF5.77
aF-0.196
aF7.531
aFnan
aF6.032
aFnan
aF7.25
aFnan
aF5.214
aF5.591
aF5.27
aF4.308
aFnan
aF3.651
aF7.23
aF6.776
aF6.452
aF4.18
aFnan
aFnan
aFnan
aF3.035
aF5.689
aF6.235
aF2.104
aF7.905
aF7.014
aF5.0
aF5.329
aF6.963
aF4.41
aF6.688
aF5.299
aFnan
aF6.681
aF6.014
aFnan
aF7.984
aF6.673
aF6.313
aF5.225
aF5.411
aF7.013
aFnan
aF6.158
aF6.677
aF5.563
aF6.593
aF6.534
aF5.758
aF5.941
aFnan
aFnan
aF6.166
aFnan
aF6.648
aF1.732
aFnan
aF6.938
aF7.784
aF5.55
aF7.752
aF3.933
aFnan
aFnan
aF6.877
aFnan
aFnan
aF5.53
aF6.99
aF7.244
aF4.58
aF6.713
aF6.387
aF3.85
aF5.367
aF5.55
aF6.734
aFnan
aF4.892
aF6.121
aF5.853
aF6.664
aF6.652
aFnan
aFnan
aF6.19
aF6.64
aF6.177
aFnan
aF2.852
aF5.108
aF4.554
aFnan
aF7.671
aFnan
aF4.112
aF4.903
aF5.6
aFnan
aF5.417
aF5.414
aF5.772
aFnan
aF7.087
aF4.802
aFnan
aFnan
aFnan
aF6.812
aF6.895
aF7.585
aF6.579
aF7.045
aFnan
aF7.587
aF3.032
aFnan
aF8.138
aFnan
aF4.508
aFnan
aF6.025
aFnan
aF6.353
aF5.458
aF7.339
aFnan
aFnan
aFnan
aF6.607
aFnan
aF6.685
aF6.824
aF7.023
aF6.871
aF2.228
aF6.653
aF6.001
aFnan
aF5.885
aFnan
aF7.136
aF7.149
aFnan
aF7.423
aFnan
aFnan
aFnan
aF5.105
aF6.28
aF6.765
aF7.858
aFnan
aF7.023
aFnan
aFnan
aF6.395
aF1.748
aF6.447
aF7.683
aFnan
aFnan
aF6.255
aF6.06
aF6.373
aF4.531
aFnan
aF6.345
aF6.983
aF4.416
aFnan
aF4.549
aF6.36
aF7.27
aF5.645
aF4.91
aF6.8
aF5.26
aFnan
aF6.598
aF5.412
aF5.74
aFnan
aFnan
aF6.672
aF7.39
aFnan
aF5.366
aF6.159
aF7.658
aF6.976
aF6.509
aF5.219
aFnan
aF6.748
aF6.703
aF6.45
aF6.416
aFnan
aF6.842
aFnan
aFnan
aFnan
aF6.813
aFnan
aF6.348
aF4.478
aF6.239
aF3.63
aF3.703
aF-0.315
aF7.596
aF6.768
aFnan
aFnan
aFnan
aF7.269
aFnan
aF4.953
aF7.558
aFnan
aF1.87
aF6.664
aFnan
aFnan
aF7.493
aFnan
aF6.524
aF6.56
aF6.425
aFnan
aF6.925
aFnan
aF7.218
aF5.618
aF6.851
aF6.505
aFnan
aF5.995
aFnan
aF6.876
aF6.735
aF7.012
aF5.451
aF6.05
aF7.628
aF6.839
aF6.505
aF5.44
aF5.839
aF6.6
aF5.89
aF4.86
aF5.685
aFnan
aFnan
aF6.405
aF7.21
aF6.24
aF7.156
aF6.607
aF4.887
aF6.926
aF5.396
aF6.42
aF3.17
aF6.811
aFnan
aF5.85
aF5.918
aF8.79
aF7.558
aF8.849
aFnan
aF2.377
aFnan
aF7.608
aF6.958
aF7.639
aFnan
aF7.555
aF-0.18
aF6.08
aF4.75
aF1.66
aF7.94
aFnan
aF9.463
aF10.66
asS'L'
p1005
(lp1006
F113.9344224323166
aF267.394331547177
aF59.23157745042489
aF0.6883080182645037
aFnan
aF36.96952324004269
aF17.390317674326088
aF150.34205740019172
aF1.6274162295453236
aF123.47559966251296
aF1.427087335333134
aF0.6433811345056709
aF0.8321570229359057
aF14.869076276867869
aF2.997853576189743
aF54.27043046964722
aF12.387513626515807
aF53.622691898183824
aF55.51919263164858
aF0.362960137813109
aFnan
aFnan
aFnan
aFnan
aF50.63198084191673
aF0.23525224813313958
aFnan
aF0.023188934271755737
aF0.6657137551315622
aF0.005449211160803172
aFnan
aF0.022086022555241454
aFnan
aF0.010089917220689502
aF0.019395296983079277
aF0.01366748275970181
aF0.009540223852983754
aF0.00629107161385001
aFnan
aF0.032518953634702384
aF0.4262059136160786
aF0.3715573158748947
aF0.020750883717533888
aFnan
aFnan
aF46.45723867693995
aF0.9898717827667541
aF1.5426336041300306
aF0.4646142096112141
aF1.5279307279467207
aF0.5188834793653772
aF22.15094641822505
aF20.594562950367795
aF0.8269150329810706
aF12.780552739957638
aF0.523022969142918
aF0.3341038933604147
aF52.45242247965361
aF1.3964100331267502
aF6.148786577784765
aF1.537948223176667
aF1.3845602300106203
aF2.8280250306105295
aF1.4533008026958605
aF1.8486323832997504
aF17.811935405930758
aF1.1218897178592286
aF1.1942857479646496
aF1.6412893232945898
aF165.18548473816577
aF0.687956261547742
aF0.10729645804683587
aF0.34084490101845344
aF2.3480864831228034
aF1.4810412087222313
aF0.4235614321192025
aF2.2369025289252615
aF12.018435623464983
aF1.2555157137830817
aF1.649409375184049
aF4.164588697667651
aF2.865963821660075
aF62.87018135187311
aF3.1375669117497167
aF1.686664148679295
aF201.38735104788972
aF0.2402824877290779
aF1.17210699834133
aF0.9297203533415148
aF1.1714514233493702
aF1.6401822946459026
aF0.32330673493159773
aF87.30063539003268
aF1.2378012951198407
aF0.5781447975860923
aF10.709081742588522
aF654.21424359899
aF1.6678404645060698
aF3.4014065288060356
aF1.5354630656870671
aF1.1831401933108794
aF1.611028665204428
aF1.0367255075323416
aF7.242098777231292
aF48.576490080521545
aF0.5250737764847434
aF0.36450232461001464
aF1.53758408568408
aF78.7976343450879
aF1.1213936588911113
aF2.8241262899975075
aF0.9355759100975946
aF12.907352376815586
aF14.876420473031532
aF1.1468242985157884
aF149.47016237616793
aF0.8773243702550996
aF1.4964084274427063
aF44.13206176245279
aF1.2451428753117701
aF0.8290754361255135
aF0.9735545994012359
aF1.859740952478464
aF6.685489145266101
aF2.3606408875401774
aF12.446312830855907
aF0.9773560225717056
aF1.0217336466296905
aF1.393790525155544
aF16.344907593577442
aF2.2299101386240867
aF0.7247259515507933
aF0.6483290007080895
aF1.9845653663809526
aF4.6599662881801756
aF1.9572980334135714
aF0.7531450221068332
aF5.505975345814947
aF0.2940107943222354
aF0.6882892119595603
aF13.266164349695794
aF3.970277103061665
aF1.875187328312981
aF2.655267395105183
aF3.5405646075179225
aF0.21903486576594644
aF2.8879440253397766
aF115.14510685103592
aF2.846560645383471
aF1.3472823299591412
aF0.23548436038429627
aF0.7510882811070393
aF0.3305464952446297
aF11.293211974126743
aF2.138390874378783
aF1.0877479792982667
aF34.58822349992098
aF4.632320610379071
aF1.8603016269301913
aFnan
aFnan
aF0.816752427159783
aF86.36180061726633
aF2.7022304353369817
aF10.573299525460142
aF1.461855986122202
aF5.833016272736229
aF4.734113063927776
aF2.5156541402827393
aF1.93208731830918
aF45.527173286787054
aF9.905090431881774
aF13.466760580073604
aF0.37628231242812427
aF2.0234557235107444
aF1.891501723090654
aF4.430884544272051
aF2.107296915945183
aF1.4997556193758772
aF14.657878693405063
aF1.5055695476851718
aF48.69284436899808
aF1.006671562881246
aF1.194131259209262
aF2.361954467502054
aF8.866959291119727
aF0.31827583781823027
aF0.4262059136160786
aF11.224062232332594
aF2.280082827732435
aF2.214449714040946
aF6.539243933526076
aF2.569528820902926
aF1.5867925763133661
aF3.9043490737392084
aF0.8082545851842512
aF13.674153575877519
aF1.102932625886646
aF1.5828539180272554
aF2.3299723572942
aF1.225923960604549
aF0.3074502693163465
aF3.673364694356284
aF20.065990243413047
aF0.5140299015701483
aF1.2234978249374209
aF0.8030483375837891
aF0.6560266257833434
aF1.7817578006513641
aF0.2989823059472474
aF0.9338959916792691
aF13.728314633424482
aF1.9589223624235068
aF16.007036089030855
aF2.6713867810035055
aF0.2914839559563558
aF2.7659766085185664
aF0.5517891707206669
aF3.5368423240264324
aF2.308708328813637
aF0.7093136358113918
aF0.6588786220473367
aF1.2066701156061574
aF1.9461963901858441
aF0.33147266234539235
aFnan
aF2.871545087802236
aF0.34041352876129155
aF1.3161769925259992
aF3.1750815954847607
aF1.8538853233396753
aF2.9495220055062292
aF1.2714863666194893
aF4.332839322460899
aF0.3369733727039461
aF1.3684268313488048
aF3.339958797434291
aF2.944930885167261
aF2.7435606898183478
aFnan
aF100891.08629111602
aF1.862518369384854
aF1.8944999662450177
aF0.47818737018946805
aF6.812766562736149
aF0.9221989508954088
aF0.37279609081329346
aF1.2145075346160792
aF2.3601118694695717
aF90.5003865477943
aF24.326678808051888
aF0.8118402523796482
aF1.2107619720945633
aF2.9486839937586002
aF10.451850265384738
aF2.97664634939838
aF1.2657704902531783
aF50.00931880425685
aF0.47334625392963553
aF11.202604277164903
aF4.553139604795293
aF3.17461977022419
aF2.180095236646422
aF0.5380603559553294
aF0.8438147280931771
aF0.6347154637734395
aF2.5529304613471564
aF6.002928925668162
aF4.105790740699423
aF0.8096195468515546
aF1.5127763090587
aF0.36972634435941765
aF0.2533627426738208
aF1.8344509927086523
aFnan
aFnan
aF1.2488442702271203
aF1.8585765923236517
aF0.7048945997156453
aF1.0060903151835623
aF15.399771602311006
aF0.8250382377662527
aF3.3305751646431503
aF1.8480536360336317
aF1.1507145377441335
aF1.5472081387202565
aF0.5945673353538751
aF0.6519819749005868
aF0.8908223997813991
aF1.269677161020158
aF163.0340403882471
aF4.144252516453967
aF1.0279189566854086
aF2.3946466805834055
aF1.3673737767278504
aF0.617637441110311
aF2.072845071568282
aF8.780861654156176
aF14.251243775957152
aF40.85016883764075
aF80.9842576266264
aF9.253507287293786
aF42.222642590830695
aF0.2594554895247689
aF0.5892412522473252
aF1.1803388427606343
aF0.7366111845155302
aF1.3500197077059162
aF1.0811019798667014
aF1.3669774088764348
aF0.6199345486871272
aFnan
aF0.9535168132166861
aF133.88752345803283
aF0.7685406634766068
aF2.1670316534291
aF0.8052375864667739
aF0.7924415869163731
aF2.2649650399724575
aF3.667158494858723
aF3.141785754270008
aF1.3032621770865729
aF2.029170611913201
aF3.0409700130012816
aF1.883073310304327
aF0.6217429696888225
aF0.3678511026098723
aF1.1834799262141906
aF0.7658542276567397
aF56.237777514493146
aF14.070947971692592
aF1.5920519414703707
aF0.8167797658298958
aF1.9181493696620515
aF0.3974881477024446
aF0.14848073915347965
aF2.3709057767832826
aF2.5978198062243347
aF1.1742864539978164
aF4.163237501773885
aF3.109283060765338
aF0.3559105010620618
aF3.856232996204153
aF1.3361125433617715
aF6.321519785812693
aF0.75489759275358
aF1.3628930703440385
aF0.38794584323148484
aF1.5178306135297834
aF1.1078813856026917
aF13.813451883096327
aF1.4476615471584608
aF12.293416053634132
aF612.7725596681676
aF4.073468096852776
aF1.3975145251160583
aF12.118460580718564
aF3.4063492889397504
aF0.9570332680475803
aF0.6148909504135155
aF0.364389256740894
aF16.65852548165319
aF1.1159817235771747
aF0.08134679344217233
aF2788.3170684187417
aF1.059771961122198
aF264.17552799760597
aF0.1722116925710071
aF0.0047807508920926015
aF0.22731890395959206
aF0.07624628210887016
aF62.863620396133655
aF0.013767352810526398
aF259.3884438765864
aF1.9584796726797054
aF1.6965557701965088
aF11.976916706147787
aFnan
aFnan
aFnan
aFnan
asS'Hmag'
p1007
(lp1008
F2.484
aF2.091
aF2.608
aF4.803
aFnan
aF3.44
aF4.486
aF2.197
aF3.736
aFnan
aF4.23
aF4.265
aF2.974
aF3.825
aF3.46
aF3.318
aF1.679
aF3.386
aFnan
aF7.455
aF6.606
aF6.337
aF6.077
aF8.069
aF4.734
aF7.027
aF9.88
aF5.824
aF4.99
aF7.321
aF7.76
aF5.856
aF6.322
aF5.154
aF4.766
aF5.9
aF7.428
aF7.209
aF6.095
aF5.865
aF3.582
aF4.25
aF6.321
aF9.058
aF8.619
aF4.47
aFnan
aF5.934
aFnan
aFnan
aF6.268
aF6.402
aF5.526
aF3.49
aF5.767
aF7.6
aF5.754
aF3.55
aF6.02
aF5.964
aFnan
aFnan
aFnan
aFnan
aFnan
aF5.516
aF7.11
aF7.296
aFnan
aFnan
aFnan
aF5.835
aFnan
aFnan
aF5.89
aFnan
aFnan
aF5.65
aFnan
aFnan
aFnan
aFnan
aFnan
aF3.55
aFnan
aF2.373
aF6.608
aFnan
aF6.287
aF5.9
aF7.16
aF5.3
aF-0.749
aF7.243
aFnan
aF5.546
aFnan
aF6.985
aFnan
aF5.022
aF5.275
aF5.121
aF3.898
aFnan
aF3.169
aF6.867
aF6.383
aF6.234
aF3.593
aFnan
aFnan
aFnan
aF2.575
aF5.232
aF5.99
aF1.488
aF7.572
aF6.797
aF4.418
aF5.041
aF6.64
aF4.03
aF6.489
aF4.875
aFnan
aF6.234
aF5.715
aFnan
aF7.656
aF6.244
aF6.078
aF4.955
aF5.098
aF6.699
aFnan
aF5.886
aF6.346
aF5.241
aF6.117
aF6.176
aF5.258
aF5.567
aFnan
aFnan
aF5.922
aFnan
aF6.342
aF1.289
aFnan
aF6.665
aF7.306
aF5.2
aF7.414
aF3.557
aFnan
aFnan
aF6.229
aFnan
aFnan
aF5.007
aF6.663
aF6.868
aF3.929
aF6.381
aF5.952
aF3.61
aF4.95
aF5.29
aF6.402
aFnan
aF4.489
aF5.67
aF5.37
aF6.243
aF6.346
aFnan
aFnan
aF5.951
aF6.39
aF5.705
aFnan
aF2.367
aF4.724
aF4.239
aFnan
aF7.389
aFnan
aF3.582
aF4.36
aF5.32
aFnan
aF5.207
aF5.19
aF5.568
aFnan
aF6.764
aF4.459
aFnan
aFnan
aFnan
aF6.539
aF6.475
aF7.35
aF6.111
aF6.642
aFnan
aF7.297
aF2.709
aFnan
aF7.641
aFnan
aF3.995
aFnan
aF5.578
aFnan
aF5.895
aF5.207
aF6.917
aFnan
aFnan
aFnan
aF6.288
aFnan
aF6.416
aF6.344
aF6.532
aF6.614
aF1.88
aF6.407
aF5.712
aFnan
aF5.579
aFnan
aF6.882
aF6.686
aFnan
aF7.182
aFnan
aFnan
aFnan
aF4.472
aF6.04
aF6.57
aF7.42
aFnan
aF6.719
aFnan
aFnan
aF6.13
aF1.314
aF5.942
aF7.404
aFnan
aFnan
aF5.798
aF5.839
aF6.048
aF3.992
aFnan
aF5.903
aF6.729
aF4.201
aFnan
aF4.064
aF6.02
aF6.92
aF5.339
aF4.38
aF6.372
aF4.595
aFnan
aF6.212
aF4.968
aF5.51
aFnan
aFnan
aF6.345
aF7.11
aFnan
aF5.101
aF5.774
aF7.328
aF6.777
aF6.215
aF4.962
aFnan
aF6.38
aF6.316
aF6.07
aF6.1
aFnan
aF6.529
aFnan
aFnan
aFnan
aF6.451
aFnan
aF5.864
aF3.88
aF5.725
aF3.065
aF3.318
aF-0.845
aF7.18
aF6.442
aFnan
aFnan
aFnan
aF6.99
aFnan
aF4.364
aF7.276
aFnan
aF1.4
aF6.329
aFnan
aFnan
aF7.126
aFnan
aF6.072
aF6.28
aF6.179
aFnan
aF6.738
aFnan
aF6.905
aF5.231
aF6.574
aF6.268
aFnan
aF5.563
aFnan
aF6.585
aF6.449
aF6.612
aF4.998
aF5.82
aF7.425
aF6.577
aF6.344
aF5.22
aF5.441
aF6.3
aF5.64
aF4.53
aF5.382
aFnan
aFnan
aF6.135
aF6.89
aF5.775
aF6.89
aF6.151
aF4.124
aF6.621
aF5.114
aF5.913
aF2.96
aF6.493
aFnan
aF5.4
aF5.472
aF8.516
aF6.927
aF8.586
aFnan
aF1.821
aFnan
aF7.069
aF6.408
aF7.006
aFnan
aF6.855
aF-0.85
aF5.908
aF4.32
aF1.19
aF7.37
aFnan
aF9.227
aF10.242
asS'parx'
p1009
(lp1010
F11.25
aF8.19
aF12.63
aF56.91
aFnan
aF13.28
aF12.91
aF10.36
aF71.11
aF12.74
aF64.07
aF81.03
aF116.89
aF17.92
aF55.6
aF12.28
aF50.63
aF10.81
aF21.77
aF20.68
aFnan
aFnan
aFnan
aFnan
aF6.27
aF28.01
aFnan
aF107.83
aF57.15
aF65.3
aFnan
aF112.58
aFnan
aF220.24
aF201.87
aF109.94
aF66.69
aF81.38
aFnan
aF96.67
aF112.22
aF92.74
aF96.02
aFnan
aFnan
aF8.18
aF20.16
aF25.63
aF34.24
aF25.19
aF33.74
aF4.1
aF6.33
aF108.45
aF7.92
aF18.82
aF47.47
aF10.3
aF26.52
aF11.78
aF57.36
aF28.42
aF30.7
aF19.53
aF26.26
aF7.18
aF15.97
aF15.14
aF17.77
aF11.11
aF34.08
aF63.03
aF34.61
aF27.69
aF25.87
aF48.78
aF19.34
aF8.12
aF30.26
aF26.34
aF11.29
aF30.44
aF14.91
aF64.03
aF22.17
aF7.42
aF35.77
aF18.45
aF26.24
aF28.61
aF13.77
aF60.6
aF49.56
aF15.26
aF31.54
aF9.09
aF1.78
aF14.73
aF10.41
aF41.32
aF37.74
aF38.16
aF67.51
aF10.18
aF12.08
aF25.49
aF34.91
aF22.61
aF8.47
aF30.96
aF38.89
aF29.13
aF32.79
aF9.13
aF29.21
aF14.73
aF15.23
aF18.17
aF7.98
aF43.02
aF23.28
aF78.26
aF19.38
aF16.94
aF16.12
aF6.28
aF33.82
aF35.43
aF12.0
aF5.39
aF20.19
aF56.06
aF53.8
aF15.44
aF15.57
aF22.67
aF27.32
aF18.25
aF40.86
aF31.37
aF9.65
aF17.04
aF64.47
aF25.67
aF17.28
aF33.98
aF14.53
aF21.64
aF38.79
aF19.07
aF24.35
aF45.21
aF23.63
aF19.91
aF26.72
aF23.4
aF3.22
aF27.32
aF15.94
aFnan
aFnan
aF19.89
aF7.17
aF14.86
aF7.87
aF67.24
aF16.94
aF19.11
aF15.26
aF36.3
aF7.61
aF9.13
aF9.04
aF37.37
aF17.22
aF18.15
aF19.89
aF22.71
aF20.72
aF7.39
aF17.54
aF17.77
aF56.41
aF63.06
aF17.46
aF5.46
aF51.77
aF112.22
aF15.24
aF25.96
aF20.01
aF22.59
aF29.83
aF30.93
aF44.29
aF22.83
aF13.85
aF22.06
aF37.48
aF9.75
aF21.11
aF37.17
aF9.28
aF5.16
aF28.27
aF28.15
aF18.37
aF165.47
aF21.81
aF21.64
aF46.38
aF18.2
aF18.2
aF7.63
aF24.61
aF46.47
aF26.3
aF22.94
aF30.66
aF37.39
aF28.11
aF30.88
aF50.36
aF18.23
aF35.02
aFnan
aF13.83
aF310.94
aF22.44
aF19.65
aF18.09
aF20.38
aF23.94
aF10.16
aF30.51
aF29.51
aF10.13
aF8.44
aF19.83
aFnan
aF0.19
aF21.46
aF18.19
aF20.03
aF54.83
aF21.98
aF22.79
aF23.62
aF18.29
aF22.24
aF4.41
aF17.65
aF18.93
aF37.85
aF8.47
aF19.88
aF25.93
aF8.29
aF20.16
aF7.94
aF10.62
aF47.88
aF21.52
aF90.42
aF29.7
aF22.74
aF26.1
aF25.46
aF11.02
aF65.89
aF54.6
aF38.61
aF76.95
aF30.2
aFnan
aFnan
aF22.7
aF12.95
aF30.89
aF45.34
aF7.3
aF17.76
aF12.44
aF19.83
aF45.7
aF20.46
aF30.59
aF29.11
aF28.72
aF25.26
aF8.11
aF11.71
aF22.61
aF21.68
aF33.43
aF28.71
aF34.53
aF8.74
aF17.74
aF3.98
aF10.32
aF39.53
aF96.54
aF28.95
aF30.07
aF24.17
aF28.11
aF18.21
aF18.23
aF18.34
aF80.04
aFnan
aF35.63
aF18.21
aF28.33
aF20.07
aF26.48
aF18.45
aF9.93
aF12.34
aF15.52
aF25.69
aF34.31
aF13.2
aF16.59
aF24.54
aF59.49
aF21.69
aF30.2
aF11.65
aF7.97
aF36.4
aF24.29
aF19.03
aF30.89
aF89.62
aF22.44
aF10.49
aF22.2
aF14.54
aF27.73
aF54.93
aF12.28
aF30.9
aF25.36
aF44.74
aF28.2
aF35.9
aF23.7
aF19.1
aF7.19
aF17.44
aF6.33
aF2.07
aF11.5
aF38.98
aF7.45
aF74.12
aF24.08
aF20.03
aF55.69
aF7.76
aF8.93
aF43.45
aF0.17
aF18.71
aF10.16
aF24.28
aF90.06
aF38.58
aF42.42
aF32.23
aF69.46
aF25.96
aF24.52
aF58.25
aF70.91
aFnan
aFnan
aFnan
aFnan
asS'decdeg'
p1011
(lp1012
F17.79287033
aF71.82390183
aF39.23619699
aF43.81764621
aF50.52544
aF10.83928581
aF-0.902247
aF65.56348021
aF40.43025562
aF64.32793611
aF20.76883088
aF28.33081975
aF-18.31119576
aF58.16263358
aF13.77878851
aF-1.03489545
aF-19.25587942
aF-3.39617225
aF-9.08773739
aF14.68938872
aF19.8913817
aF21.005289
aF49.586967
aF-8.1700753
aF-9.4890867
aF-16.22634606
aF-1.063033
aF18.95816787
aF-79.85117852
aF-23.45647
aF-31.14419
aF-32.5399709
aF-34.996844
aF-46.8951925
aF-49.00900533
aF-4.64072805
aF-53.37369585
aF6.477283
aF-7.722067
aF25.74416355
aF-27.03297557
aF-50.8237272
aF3.57561978
aF47.3520361
aF30.4887267
aF20.44154758
aF-4.75569229
aF-60.51152649
aF-58.00688555
aF-58.70371146
aF2.82148162
aF14.12398325
aF3.47429342
aF-40.5003534
aF57.64073508
aF-50.29282435
aF-20.35378072
aF76.90573541
aF10.04163822
aF-9.51338029
aF-53.74083363
aF-7.25731937
aF20.08314948
aF-3.31978875
aF-64.02208904
aF21.94824495
aF22.87982833
aF74.48955158
aF-40.81211638
aF-7.99556457
aF-68.42515207
aF-52.44292285
aF-35.05478184
aF-31.87334876
aF17.51712211
aF-2.26503709
aF-19.50697575
aF24.64869668
aF-35.57099804
aF-47.27136363
aF53.72853063
aF-10.24242599
aF-67.64730385
aF17.45690422
aF-56.04004335
aF-27.42977259
aF-40.39394679
aF-17.48152575
aF-51.93308748
aF25.41430641
aF-5.17777982
aF9.74651755
aF23.46241755
aF-68.76274851
aF-0.281478
aF18.23540451
aF32.3164347
aF53.38216993
aF44.04314573
aF-61.42231858
aF-70.51962419
aF-25.30934634
aF-48.31762904
aF41.73320606
aF29.61620801
aF-80.2045884
aF-53.74389196
aF43.77299741
aF53.92214249
aF-18.43606757
aF-49.07518935
aF-84.23161316
aF35.65737975
aF15.43070731
aF-60.20025789
aF26.87787876
aF-44.43453373
aF-27.07817462
aF26.74274796
aF-8.05300067
aF-61.68876169
aF-39.19297559
aF-46.31762784
aF-13.3996369
aF2.0848259
aF14.05475398
aF-2.85727943
aF79.78977866
aF-46.33295612
aF11.97374506
aF-43.30977125
aF-28.58267732
aF47.08187893
aF-56.44927088
aF-56.68079728
aF33.35585694
aF63.35209419
aF-48.54931774
aF29.22722898
aF-19.61618113
aF27.30334069
aF-43.14550926
aF-51.83405147
aF-3.56060605
aF42.06263206
aF-40.3183529
aF56.39195602
aF-9.77363329
aF-34.57797577
aF0.10455527
aF-28.56064524
aF26.3130025
aF-42.57537372
aF54.2865534
aF-9.59571931
aF-11.92268252
aF-8.28115625
aF-29.81686314
aF11.69549938
aF49.6530731
aF6.9457539
aF-28.07231615
aF36.55660647
aF-69.94424287
aF4.26532615
aF32.90127007
aF25.92066102
aF34.60045265
aF-2.63838658
aF-24.17935188
aF31.86034913
aF-23.55815627
aF-23.61957022
aF-66.46879899
aF-32.91905215
aF8.3580544
aF28.49986264
aF-37.78054846
aF34.41952249
aF-20.80260631
aF28.10037546
aF8.46145276
aF-67.32089434
aF29.896804
aF-35.53863421
aF-64.6204702
aF-0.866875
aF-27.03297557
aF4.58079271
aF18.76949279
aF-60.6344854
aF-75.35079646
aF11.24965134
aF42.24855126
aF-1.19610035
aF-72.32188917
aF3.8031189
aF-20.78920939
aF31.12704439
aF-56.65004726
aF-21.72625554
aF-20.95742411
aF-31.73748815
aF-7.40825239
aF-28.78383319
aF-28.85407363
aF-26.02655964
aF-43.06978264
aF-37.76362275
aF-33.73010878
aF-7.54865412
aF16.04055286
aF-77.71792329
aF-17.26365469
aF-49.43327126
aF-6.40082266
aF-48.97882167
aF-56.59953301
aF-48.59828623
aF-70.07370916
aF-26.65876319
aF-58.32368095
aF-2.39538443
aF-0.429628
aF-2.26074375
aF56.7303206
aF18.64572281
aF-9.45825866
aF-20.6160319
aF8.64384413
aF-58.20973236
aF48.9965252
aF-5.98575923
aF-22.42811391
aF31.82629489
aF-52.91584016
aF-60.07784313
aF16.47429227
aF40.53063501
aF57.0294542
aF58.04324039
aF17.47636664
aF-65.18667674
aF-5.76400024
aF-59.30215594
aF-41.96026812
aF-59.41083845
aF-10.55081429
aF-50.6221924
aF19.18042906
aF4.57529762
aF-2.27761951
aF-58.02075546
aF-5.67404509
aF-24.36884155
aF12.35219813
aF-23.24187894
aF69.63940307
aF-49.96352472
aF-13.98647842
aF-26.79747236
aF79.23115057
aF7.35334744
aF21.25047446
aF20.73078808
aF6.06057767
aF-73.69934221
aF1.16819325
aF-8.32769957
aF-4.09464314
aF-80.46912137
aF-70.14357233
aF-60.02347159
aF44.26044278
aF-48.239689
aF-48.239692
aF-37.98263249
aF20.44892652
aF-26.51567972
aF-65.64952213
aF7.84502103
aF-29.8972699
aF41.09230871
aF-10.72501283
aF-28.78011494
aF38.96296304
aF-31.48095661
aF10.93389116
aF5.46292453
aF-27.62229708
aF-32.33973351
aF-48.54195402
aF40.86775687
aF-33.91555924
aF24.24556063
aF-55.25932721
aF-5.36716222
aF0.78955609
aF33.95088453
aF20.2924828
aF17.08604726
aF-22.29606662
aF28.02619889
aF-78.27897462
aF-54.26414611
aF-39.48821728
aF-63.6473239
aF-1.16270765
aF-8.23370344
aF61.4607207
aF-12.63216989
aF1.85932
aF-39.7054105
aF60.71816987
aF-66.188167
aF-1.56821614
aF-30.03762406
aF-34.4599783
aF-41.3191006
aF12.96037292
aF4.57809648
aF-5.04738728
aF-41.73679282
aF33.05681089
aF-66.80099498
aF-25.52706276
aF76.71028709
aF23.37555042
aF20.36445456
aF45.60148177
aF34.78074254
aF-12.12954813
aF-43.27220429
aF-41.26980033
aF-49.79026816
aF-43.5027849
aF28.56669473
aF-3.80842246
aF-24.0993871
aF-15.89512059
aF34.57970116
aF34.24225934
aF18.18686934
aF12.6211066
aF41.22953076
aF-29.6455293
aF-2.18375584
aF-33.57702152
aF-41.46436765
aF29.26514931
aF1.72921549
aF-38.24501662
aF-2.51321852
aF44.30155811
aF-10.29130189
aF-30.17456613
aF-23.97541613
aF41.40545674
aF-23.21734184
aF-1.52907347
aF3.00632269
aF43.9665806
aF-12.38429861
aF-23.08661241
aF-36.10751385
aF21.09735906
aF30.24516198
aF-22.45315187
aF42.75197441
aF30.9592931
aF-46.46381741
aF58.96606512
aF-18.87549736
aF19.841258
aF24.64806264
aF-50.80029513
aF77.63227434
aF-13.906658
aF-61.872
aF20.226892
aF19.277044
asS'Umag'
p1013
(lp1014
Fnan
aFnan
aFnan
aFnan
aFnan
aFnan
aFnan
aFnan
aFnan
aFnan
aFnan
aFnan
aF5.71
aFnan
aF5.93
aFnan
aFnan
aFnan
aFnan
aFnan
aFnan
aFnan
aFnan
aFnan
aFnan
aFnan
aFnan
aF12.668
aF7.692
aFnan
aFnan
aF12.508
aF12.96
aF12.177
aF11.359
aF13.006
aF14.397
aF14.791
aF13.403
aF12.342
aFnan
aFnan
aF12.552
aFnan
aFnan
aFnan
aFnan
aFnan
aFnan
aFnan
aFnan
aFnan
aFnan
aFnan
aFnan
aFnan
aF9.683
aFnan
aFnan
aFnan
aFnan
aFnan
aFnan
aFnan
aFnan
aFnan
aFnan
aFnan
aFnan
aFnan
aFnan
aF11.733
aFnan
aFnan
aFnan
aF9.137
aFnan
aFnan
aFnan
aFnan
aFnan
aFnan
aFnan
aFnan
aFnan
aFnan
aFnan
aFnan
aFnan
aFnan
aFnan
aF9.232
aFnan
aFnan
aFnan
aF9.713
aFnan
aF9.3
aFnan
aFnan
aFnan
aFnan
aFnan
aF9.48
aFnan
aFnan
aFnan
aFnan
aFnan
aFnan
aFnan
aFnan
aFnan
aFnan
aFnan
aF6.65
aFnan
aFnan
aFnan
aFnan
aFnan
aFnan
aFnan
aFnan
aFnan
aF9.98
aFnan
aFnan
aFnan
aFnan
aFnan
aFnan
aFnan
aFnan
aFnan
aFnan
aFnan
aFnan
aFnan
aFnan
aFnan
aFnan
aFnan
aFnan
aFnan
aFnan
aFnan
aFnan
aFnan
aFnan
aFnan
aFnan
aFnan
aFnan
aFnan
aFnan
aF11.967
aFnan
aFnan
aFnan
aFnan
aFnan
aFnan
aFnan
aFnan
aF5.85
aFnan
aFnan
aFnan
aFnan
aFnan
aFnan
aFnan
aFnan
aFnan
aFnan
aFnan
aFnan
aFnan
aFnan
aFnan
aFnan
aFnan
aFnan
aFnan
aFnan
aF9.447
aFnan
aFnan
aF7.73
aFnan
aFnan
aFnan
aFnan
aFnan
aFnan
aFnan
aFnan
aFnan
aFnan
aFnan
aFnan
aFnan
aFnan
aFnan
aFnan
aFnan
aFnan
aFnan
aFnan
aFnan
aFnan
aFnan
aFnan
aFnan
aFnan
aFnan
aFnan
aFnan
aFnan
aFnan
aFnan
aFnan
aFnan
aFnan
aFnan
aFnan
aFnan
aFnan
aFnan
aFnan
aFnan
aFnan
aFnan
aFnan
aFnan
aFnan
aFnan
aFnan
aFnan
aFnan
aFnan
aFnan
aFnan
aFnan
aFnan
aFnan
aFnan
aFnan
aFnan
aFnan
aFnan
aFnan
aFnan
aFnan
aFnan
aFnan
aF8.55
aFnan
aFnan
aF8.87
aFnan
aFnan
aFnan
aFnan
aFnan
aFnan
aFnan
aFnan
aFnan
aFnan
aFnan
aF8.814
aFnan
aFnan
aFnan
aFnan
aFnan
aFnan
aF7.31
aFnan
aFnan
aFnan
aFnan
aFnan
aFnan
aFnan
aFnan
aFnan
aFnan
aFnan
aFnan
aFnan
aFnan
aFnan
aFnan
aFnan
aFnan
aFnan
aFnan
aFnan
aF5.02
aFnan
aFnan
aFnan
aFnan
aFnan
aFnan
aFnan
aFnan
aFnan
aFnan
aFnan
aFnan
aFnan
aFnan
aFnan
aFnan
aFnan
aFnan
aFnan
aFnan
aFnan
aFnan
aFnan
aFnan
aFnan
aFnan
aF8.51
aFnan
aFnan
aFnan
aFnan
aFnan
aFnan
aF9.963
aFnan
aFnan
aFnan
aFnan
aFnan
aFnan
aFnan
aF7.65
aFnan
aF7.758
aFnan
aFnan
aFnan
aFnan
aFnan
aFnan
aFnan
aFnan
aFnan
aFnan
aFnan
aFnan
aFnan
aFnan
aF9.467
aFnan
aFnan
aF12.911
aFnan
aFnan
aFnan
aFnan
aFnan
aFnan
aF13.059
aFnan
aF14.015
aFnan
aFnan
aFnan
aF5.19
aFnan
aFnan
aFnan
aFnan
asS'MV'
p1015
(lp1016
F-0.004237387763093459
aF-0.4095804911979064
aF0.7270167527766533
aF5.4459429280416245
aFnan
aF1.1379903751599931
aF1.9956312113321015
aF-0.09020122295392863
aF4.299653393201338
aF0.12484713999665864
aF4.493273619959304
aF5.493229194535567
aF5.078886793166586
aF2.1466900266305324
aF3.695373957910287
aF0.8099918340257437
aF2.4720396369342046
aF0.8251284697665513
aF0.8992921452054721
aF6.237752672109525
aFnan
aFnan
aFnan
aFnan
aF0.8463377041535827
aF6.866565544117842
aFnan
aF10.114698026047467
aF5.363081173656503
aF11.05456590637537
aFnan
aF10.070306221620918
aFnan
aF11.121480991926369
aF10.197358915111463
aF10.571778663148558
aF10.931303587093266
aF11.570588427586333
aFnan
aF9.58145859296444
aF5.9733513218371925
aF6.006335457798928
aF9.953808508165734
aFnan
aFnan
aF1.0017665183566153
aF4.942452638867438
aF4.363743030921221
aF5.882668780025579
aF4.456140837490565
aF5.700725391265533
aF1.7739192835986781
aF1.8970185500867762
aF5.062147781751061
aF2.344625907947467
aF5.763098095456192
aF6.3030961585918
aF0.8611861235258607
aF4.477867598663678
aF2.9357264522554143
aF4.313045713298718
aF4.618120367957254
aF3.7276918773859324
aF4.473511216439271
aF4.099473608767303
aF2.0006222212115006
aF4.776524580692415
aF4.660629375820269
aF4.328437139026509
aF-0.11442970529566221
aF5.272497930473312
aF8.054736535628075
aF6.406007996470639
aF3.901614778727873
aF4.363982143582717
aF5.991208979888559
aF3.9422823487349143
aF2.437780146205875
aF4.6543446184358395
aF4.273078853128824
aF3.32346970962484
aF3.8372232404926763
aF0.5623882172649726
aF3.521917509120838
aF4.248828465572441
aF-0.171980473604866
aF6.797594700744847
aF4.649981852475396
aF4.944819153518114
aF4.722589289026313
aF4.481669701284619
aF6.358363120831431
aF0.4716564885201291
aF4.707772668094307
aF5.534308444964419
aF2.592819416109837
aF-1.1878999884555297
aF4.291013734213155
aF3.4872536475526807
aF4.365801564237915
aF4.738009479144562
aF4.368041830160287
aF4.795840539944101
aF2.9187388900036995
aF0.9293346714255648
aF5.731849177346337
aF6.094749244070895
aF4.371502811726798
aF0.6164170516535341
aF4.704004760054275
aF3.6491897157372994
aF5.0117024231383365
aF2.3747070833468262
aF2.2523538876714957
aF4.667657784867748
aF-0.02898626578684471
aF5.073499516680213
aF4.396774636540172
aF1.0750144567536486
aF4.6283520302572185
aF5.134914879889255
aF4.843699217823307
aF4.126768863573734
aF3.0345670299734397
aF3.926825187345359
aF2.3397982186859796
aF4.865868016308614
aF4.775855761665886
aF4.555906230238125
aF2.007943825933694
aF3.905681594718197
aF5.327265467121337
aF5.3939113783319454
aF4.143236479998587
aF3.2014430628406014
aF4.047257600632586
aF5.262403475047475
aF2.9763143439624677
aF6.476491811482144
aF5.342572593488725
aF2.3866365667189635
aF3.397347952153407
aF4.196788351055529
aF3.827129343357217
aF3.4677186907143724
aF6.776116872665133
aF3.7903280714901078
aF-0.0147137178273411
aF3.723598898000283
aF4.504753465230028
aF6.762494827753266
aF5.266172535171471
aF6.207318608161845
aF2.4453563001370475
aF4.054182269017541
aF4.796079287050714
aF1.7172793584791552
aF3.0934034750474746
aF4.192441585300467
aFnan
aFnan
aF5.143173915622178
aF0.33459577833900056
aF3.8600940471227823
aF2.479873661795324
aF4.388138523837167
aF3.3215670299734397
aF3.146303435275065
aF3.877772668094308
aF4.053533125180562
aF1.0149232838528635
aF2.5823538876714958
aF2.3308421523768166
aF6.242615489248189
aF4.040165735588179
aF4.154383146860656
aF3.1761739156221775
aF3.9910856710986766
aF4.4119487553659775
aF2.1532221919741295
aF4.450147945150109
aF0.9704371390265085
aF4.830780498626968
aF4.708769832059429
aF3.990221196847755
aF2.4159632135236873
aF6.33739082490928
aF5.9733513218371925
aF2.363924835017908
aF3.951523440641658
aF3.9962354431810576
aF2.789581154601814
aF3.7582662668103133
aF4.264899600015895
aF3.3115284014237933
aF5.162529557451176
aF2.1942488670023366
aF4.78802754052086
aF4.2789979110787035
aF3.9350230784926854
aF4.642441166538282
aF6.33096280547863
aF3.3777398810943087
aF1.9132485081360562
aF5.696629042447597
aF4.627391995936825
aF5.110545781529042
aF5.348596334502465
aF4.163278327893501
aF6.6062862821726585
aF4.961653721509843
aF2.2393569399253734
aF4.060356939925374
aF2.0126226897744015
aF3.755558068514013
aF6.465863362394343
aF3.729778742448789
aF5.752967067826244
aF3.4628607525917827
aF3.927777325771099
aF5.3443042280372035
aF5.388386458318493
aF4.690428607179125
aF4.082933343274881
aF6.349580708737137
aFnan
aF3.7141109005465527
aF6.193382971133559
aF4.515114262920618
aF3.5668127735572264
aF4.097192834299069
aF3.6660208983520386
aF4.585620730351959
aF3.254468539739504
aF6.188211038212035
aF4.459846047499798
aF3.5780472268014023
aF3.6017122331282767
aF3.726613571026514
aFnan
aF-5.436231995235856
aF4.178148588149661
aF4.0791634953174185
aF5.888404746467883
aF3.1370912294174045
aF4.9501384404373585
aF6.208721625901878
aF4.67639946638748
aF3.991068527382084
aF0.2656739145500988
aF1.662192947339193
aF5.173723548619206
aF4.755753069818983
aF3.660329419180457
aF2.5504170516535334
aF3.622081900306472
aF4.553012583846757
aF1.0127726527513667
aF5.8524526388674385
aF2.459102512135482
aF3.1706225837272504
aF3.495770708671865
aF3.994211334971758
aF5.661322513491378
aF5.043782246586061
aF5.47395230175858
aF3.779202536691405
aF2.9672919965881825
aF3.48090797257883
aF5.060097537737683
aF4.355963213523687
aF6.0084990081202445
aF6.5780431208374885
aF4.134034714785752
aFnan
aFnan
aF4.660129285965613
aF4.248348842086353
aF5.239089541507253
aF4.834407578952493
aF2.1366143006022797
aF5.1972148072129105
aF3.4941019017739983
aF4.186613571026514
aF4.673581000349251
aF4.434528146880707
aF5.487897384923394
aF5.447211027194055
aF5.130922177851313
aF4.64216673109656
aF-0.19689572894422014
aF3.372784475361815
aF4.871502811726798
aF3.880296389331747
aF4.460681882962842
aF5.46016596248253
aF3.9919828917472713
aF2.7575571631720166
aF2.243768077478537
aF1.1094153603684376
aF0.518398486455963
aF2.374634071714853
aF1.0735364724133656
aF6.668242840317275
aF5.4906671405025875
aF4.636383252038252
aF5.204304228037204
aF4.5615497289746
aF4.7539333432748805
aF4.506996656670012
aF5.466535399820869
aFnan
aF4.939079111755078
aF-0.3364502710253996
aF5.291232872602185
aF3.982736862437428
aF5.174589903838313
aF5.199981852475395
aF3.9847462424769056
aF3.696575798486114
aF3.564458584610848
aF4.528820521331731
aF4.037103590280868
aF3.632869656029248
aF4.229231930121804
aF5.539372791954928
aF6.057219844624825
aF4.7012977600709664
aF5.130034714785753
aF0.7446296268101893
aF2.137291606980561
aF4.3355069182452795
aF5.167137574025652
aF4.087193941435102
aF5.999089541507254
aF7.413024697885122
aF3.8651142629206188
aF3.8038774409677893
aF4.661764872253193
aF3.2228220326150954
aF3.5247493478893084
aF6.249047995106794
aF3.5059918340257443
aF4.479792397124173
aF2.7617462460484745
aF5.173479898803055
aF4.551245541596805
aF6.1054722428915955
aF4.359741730050519
aF4.755166836238638
aF2.2336444519144125
aF4.407732402982742
aF2.261018550086776
aF-1.0131482727154104
aF3.383489201768059
aF4.457209173908014
aF2.390781363741463
aF3.4496770532342995
aF4.898282412928935
aF5.568404746467882
aF6.258886089448795
aF2.0893086062909427
aF4.604257294442732
aF8.426948903923426
aF-3.86575539310863
aF4.860368937500049
aF-0.5675314602604971
aF7.136243412016101
aF11.652659713134572
aF6.891811116539329
aF8.513853320902715
aF0.8513015275616724
aF10.580673894873717
aF-0.8084765593583416
aF4.037602329231888
aF4.226479648490283
aF2.473537426872686
aFnan
aFnan
aFnan
aFnan
asS'pmra'
p1017
(lp1018
F-108.81
aF3.97
aF286.72
aF131.83
aFnan
aF-48.75
aF66.21
aF105.83
aF-317.01
aF-60.05
aF207.25
aF-485.8
aF-1070.36
aF-30.14
aF-236.02
aF-24.72
aF62.57
aF40.18
aF368.78
aF235.8
aF-37.1
aF0.1
aF3.7
aF1.6
aF15.94
aF-353.78
aF12.9
aF656.85
aF433.92
aF-438.0
aF-583.0
aF-72.51
aF1155.0
aF571.26
aF-46.05
aF1130.27
aF1041.43
aF142.98
aF-1227.67
aF-114.07
aF1241.85
aF2092.86
aF-1760.7
aF-25.2
aF-76.8
aF-59.23
aF-12.49
aF-14.6
aF15.8
aF-63.74
aF-189.71
aF-6.54
aF-45.38
aF-1530.99
aF-10.82
aF-80.24
aF143.31
aF147.68
aF23.76
aF-99.69
aF166.32
aF-249.67
aF-44.75
aF-53.46
aF-182.28
aF-73.83
aF127.11
aF-170.69
aF-157.85
aF-77.13
aF26.64
aF-785.48
aF-137.59
aF-202.87
aF-582.88
aF-138.66
aF22.87
aF-13.3
aF-204.79
aF24.87
aF-87.39
aF-366.23
aF76.22
aF-479.53
aF-249.48
aF-31.96
aF-561.46
aF-61.12
aF-304.54
aF-107.12
aF-152.04
aF204.74
aF188.55
aF-198.45
aF-129.67
aF44.46
aF2.62
aF-13.78
aF-59.86
aF-184.91
aF-177.73
aF-399.92
aF-1622.61
aF-19.66
aF-117.98
aF-46.72
aF-107.59
aF99.03
aF-18.32
aF96.83
aF575.29
aF-336.32
aF-8.55
aF-55.58
aF-113.56
aF-77.07
aF-158.32
aF20.23
aF-18.34
aF416.87
aF-178.49
aF71.89
aF44.88
aF-37.74
aF-9.26
aF74.64
aF-25.58
aF95.77
aF-108.5
aF11.49
aF109.69
aF83.76
aF123.27
aF31.23
aF87.14
aF-222.45
aF-1.21
aF-33.71
aF-71.16
aF2.66
aF48.35
aF-231.62
aF-16.85
aF-157.31
aF-38.9
aF17.27
aF-75.74
aF-9.48
aF-18.35
aF-7.4
aF-32.33
aF389.41
aF36.6
aF107.94
aF-93.84
aF-23.35
aF13.06
aF-1.39
aF-48.14
aF37.9
aF-43.8
aF-29.46
aF21.11
aF-7.31
aF-6.82
aF201.96
aF-40.84
aF51.89
aF-133.89
aF117.97
aF47.19
aF33.18
aF-45.87
aF-230.6
aF88.03
aF-19.08
aF-32.03
aF7.6
aF143.18
aF-19.81
aF53.71
aF101.91
aF844.5
aF683.94
aF-28.38
aF0.68
aF-61.13
aF1241.85
aF-39.24
aF348.48
aF-190.72
aF149.53
aF47.34
aF-62.47
aF194.56
aF72.54
aF94.99
aF-38.4
aF-104.18
aF78.42
aF42.86
aF-279.35
aF20.94
aF2.35
aF348.97
aF349.33
aF132.05
aF3038.34
aF100.51
aF293.32
aF85.07
aF-3.15
aF75.74
aF-87.59
aF-136.01
aF-155.75
aF209.13
aF-53.68
aF217.04
aF-43.89
aF226.63
aF249.89
aF-6.35
aF-88.78
aF632.56
aF12.6
aF-4.15
aF-975.17
aF-15.48
aF26.9
aF180.53
aF195.33
aF-144.88
aF148.49
aF41.46
aF-192.57
aF75.27
aF63.85
aF53.95
aF18.0
aF-0.74
aF113.79
aF143.97
aF-105.63
aF-47.53
aF-41.29
aF182.16
aF84.42
aF-67.15
aF106.19
aF4.03
aF34.44
aF66.15
aF311.04
aF18.91
aF89.41
aF-66.21
aF60.26
aF-235.2
aF-7.49
aF55.93
aF-78.48
aF-0.46
aF-461.32
aF-80.14
aF53.15
aF139.67
aF-79.12
aF-57.36
aF60.84
aF312.01
aF-309.21
aF-52.65
aF93.85
aF-42.2
aFnan
aF50.63
aF122.97
aF314.7
aF157.49
aF-5.14
aF148.65
aF23.12
aF73.05
aF-164.99
aF-42.16
aF53.22
aF205.99
aF111.96
aF21.32
aF108.06
aF25.44
aF32.23
aF-68.95
aF-37.58
aF-26.45
aF-116.13
aF-4.93
aF34.98
aF2.64
aF41.29
aF-39.87
aF-626.55
aF-20.82
aF147.67
aF-169.44
aF-122.93
aF-67.78
aF192.24
aF129.01
aF278.99
aF-50.5
aF-201.65
aF-133.76
aF110.78
aF-112.36
aF-180.11
aF-107.82
aF-59.95
aF-114.84
aF24.83
aF-160.79
aF-20.0
aF-95.44
aF-282.73
aF41.13
aF-34.23
aF-127.94
aF-152.39
aF-7.5
aF14.33
aF3.0
aF23.0
aF58.19
aF24.32
aF461.92
aF250.87
aF-66.54
aF-176.68
aF-13.13
aF237.19
aF-64.04
aF-12.58
aF-272.29
aF-119.41
aF-38.02
aF-14.19
aF-93.85
aF-48.11
aF192.01
aF-35.31
aF-30.95
aF27.69
aF7.79
aF-49.69
aF-505.21
aF-131.02
aF-173.33
aF-199.28
aF-178.07
aF-730.81
aF45.57
aF57.27
aF292.62
aF3.63
aF-3.66
aF-31.21
aF202.62
aF-578.87
aF-26.4
aF-47.12
aF-8.36
aF28.31
aF294.9
aF150.75
aF332.82
aF-47.96
aF1.9
aF-7.02
aF-35.3
aF-35.1
as.